(dp0
S'365 days'
p1
(dp2
S'hive.csv'
p3
(lp4
F0.124
aF0.124
aF0.124
aF0.126
aF0.2
aF0.227
aF0.229
aF0.232
aF0.234
aF0.24
aF0.25
aF0.257
aF0.26
aF0.26
aF0.262
aF0.273
aF0.275
aF0.277
aF0.277
aF0.28
aF0.394
asS'deeplearning.csv'
p5
(lp6
F0.003
aF0.003
aF0.005
aF0.005
aF0.005
aF0.005
aF0.005
aF0.005
aF0.008
aF0.008
aF0.01
aF0.01
aF0.01
aF0.141
aF0.177
aF0.177
aF0.177
aF0.177
aF0.354
aF0.354
aF0.354
asS'node.csv'
p7
(lp8
F0.354
aF0.425
aF0.425
aF0.425
aF0.425
aF0.425
aF0.425
aF0.425
aF0.425
aF0.425
aF0.425
aF0.531
aF0.589
aF0.589
aF0.707
aF0.707
aF0.707
aF0.707
aF0.707
aF0.707
aF0.707
asS'cocoon.csv'
p9
(lp10
F0.028
aF0.237
aF0.355
aF0.355
aF0.355
aF0.355
aF0.355
aF0.472
aF0.506
aF0.506
aF0.708
aF0.708
aF0.708
aF0.708
aF0.708
aF0.708
aF0.708
aF0.708
aF0.708
aF0.708
aF0.708
asS'ofbiz.csv'
p11
(lp12
F0.042
aF0.042
aF0.042
aF0.043
aF0.044
aF0.044
aF0.089
aF0.109
aF0.147
aF0.148
aF0.182
aF0.239
aF0.286
aF0.333
aF0.356
aF0.65
aF0.709
aF0.709
aF0.709
aF0.709
aF0.709
asS'qpid.csv'
p13
(lp14
F0.06
aF0.06
aF0.061
aF0.173
aF0.177
aF0.189
aF0.189
aF0.189
aF0.195
aF0.204
aF0.204
aF0.211
aF0.211
aF0.22
aF0.22
aF0.22
aF0.227
aF0.244
aF0.256
aF0.359
aF0.359
asS'hadoop.csv'
p15
(lp16
F0.119
aF0.153
aF0.153
aF0.153
aF0.259
aF0.259
aF0.261
aF0.267
aF0.268
aF0.268
aF0.296
aF0.335
aF0.336
aF0.341
aF0.348
aF0.356
aF0.364
aF0.373
aF0.386
aF0.395
aF0.398
asS'camel.csv'
p17
(lp18
F0.145
aF0.146
aF0.147
aF0.153
aF0.166
aF0.247
aF0.249
aF0.25
aF0.252
aF0.274
aF0.281
aF0.295
aF0.299
aF0.299
aF0.311
aF0.311
aF0.313
aF0.336
aF0.378
aF0.411
aF0.419
asS'cloudstack.csv'
p19
(lp20
F0.354
aF0.354
aF0.354
aF0.354
aF0.354
aF0.354
aF0.354
aF0.354
aF0.354
aF0.354
aF0.354
aF0.354
aF0.354
aF0.354
aF0.354
aF0.472
aF0.472
aF0.472
aF0.707
aF0.707
aF0.707
assS'180 days'
p21
(dp22
g3
(lp23
F0.108
aF0.121
aF0.162
aF0.171
aF0.225
aF0.226
aF0.228
aF0.236
aF0.237
aF0.239
aF0.239
aF0.239
aF0.248
aF0.25
aF0.278
aF0.282
aF0.284
aF0.288
aF0.304
aF0.305
aF0.314
asg5
(lp24
F0.01
aF0.01
aF0.01
aF0.01
aF0.01
aF0.01
aF0.01
aF0.01
aF0.01
aF0.236
aF0.236
aF0.354
aF0.354
aF0.354
aF0.45
aF0.472
aF0.707
aF0.707
aF0.707
aF0.707
aF0.707
asg7
(lp25
F0.025
aF0.025
aF0.025
aF0.025
aF0.025
aF0.025
aF0.025
aF0.025
aF0.025
aF0.025
aF0.025
aF0.025
aF0.025
aF0.025
aF0.354
aF0.354
aF0.472
aF0.708
aF0.708
aF0.708
aF0.708
asg9
(lp26
F0.016
aF0.016
aF0.016
aF0.472
aF0.505
aF0.707
aF0.707
aF0.707
aF0.707
aF0.707
aF0.707
aF0.707
aF0.707
aF0.707
aF0.707
aF0.707
aF0.707
aF0.707
aF0.707
aF0.707
aF0.707
asg11
(lp27
F0.05
aF0.052
aF0.053
aF0.053
aF0.053
aF0.113
aF0.129
aF0.151
aF0.185
aF0.185
aF0.185
aF0.185
aF0.185
aF0.209
aF0.241
aF0.288
aF0.288
aF0.318
aF0.375
aF0.709
aF0.709
asg13
(lp28
F0.105
aF0.105
aF0.107
aF0.118
aF0.121
aF0.121
aF0.136
aF0.148
aF0.148
aF0.151
aF0.17
aF0.175
aF0.186
aF0.186
aF0.186
aF0.202
aF0.205
aF0.239
aF0.257
aF0.259
aF0.284
asg15
(lp29
F0.124
aF0.124
aF0.124
aF0.124
aF0.124
aF0.124
aF0.124
aF0.124
aF0.253
aF0.261
aF0.261
aF0.263
aF0.266
aF0.269
aF0.271
aF0.271
aF0.274
aF0.295
aF0.339
aF0.375
aF0.418
asg17
(lp30
F0.116
aF0.116
aF0.188
aF0.194
aF0.194
aF0.194
aF0.195
aF0.195
aF0.205
aF0.212
aF0.213
aF0.22
aF0.243
aF0.262
aF0.265
aF0.27
aF0.312
aF0.318
aF0.335
aF0.337
aF0.372
asg19
(lp31
F0.025
aF0.025
aF0.025
aF0.025
aF0.025
aF0.025
aF0.025
aF0.025
aF0.025
aF0.025
aF0.025
aF0.025
aF0.025
aF0.025
aF0.025
aF0.025
aF0.025
aF0.025
aF0.025
aF0.025
aF0.178
assS'90 days'
p32
(dp33
g3
(lp34
F0.103
aF0.118
aF0.119
aF0.152
aF0.152
aF0.152
aF0.158
aF0.158
aF0.158
aF0.158
aF0.158
aF0.158
aF0.158
aF0.171
aF0.177
aF0.197
aF0.217
aF0.234
aF0.307
aF0.311
aF0.321
asg5
(lp35
F0.03
aF0.03
aF0.03
aF0.032
aF0.032
aF0.032
aF0.032
aF0.032
aF0.032
aF0.032
aF0.032
aF0.355
aF0.355
aF0.473
aF0.708
aF0.708
aF0.708
aF0.708
aF0.708
aF0.708
aF0.708
asg7
(lp36
F0.07
aF0.07
aF0.07
aF0.071
aF0.071
aF0.071
aF0.071
aF0.071
aF0.071
aF0.071
aF0.071
aF0.071
aF0.071
aF0.071
aF0.071
aF0.071
aF0.071
aF0.071
aF0.246
aF0.477
aF0.477
asg9
(lp37
F0.023
aF0.023
aF0.024
aF0.024
aF0.024
aF0.024
aF0.026
aF0.026
aF0.026
aF0.026
aF0.026
aF0.026
aF0.026
aF0.026
aF0.178
aF0.355
aF0.355
aF0.355
aF0.425
aF0.708
aF0.708
asg11
(lp38
F0.064
aF0.064
aF0.155
aF0.359
aF0.359
aF0.359
aF0.359
aF0.359
aF0.359
aF0.359
aF0.359
aF0.429
aF0.476
aF0.476
aF0.476
aF0.509
aF0.534
aF0.541
aF0.71
aF0.71
aF0.71
asg13
(lp39
F0.072
aF0.072
aF0.072
aF0.072
aF0.072
aF0.11
aF0.119
aF0.132
aF0.174
aF0.197
aF0.232
aF0.251
aF0.265
aF0.274
aF0.276
aF0.311
aF0.311
aF0.311
aF0.32
aF0.337
aF0.388
asg15
(lp40
F0.094
aF0.094
aF0.094
aF0.094
aF0.095
aF0.095
aF0.095
aF0.095
aF0.21
aF0.254
aF0.264
aF0.323
aF0.357
aF0.366
aF0.37
aF0.384
aF0.401
aF0.408
aF0.409
aF0.411
aF0.481
asg17
(lp41
F0.035
aF0.038
aF0.124
aF0.155
aF0.179
aF0.181
aF0.189
aF0.196
aF0.196
aF0.199
aF0.205
aF0.207
aF0.238
aF0.239
aF0.239
aF0.243
aF0.259
aF0.261
aF0.306
aF0.306
aF0.356
asg19
(lp42
F0.025
aF0.025
aF0.025
aF0.025
aF0.025
aF0.025
aF0.025
aF0.025
aF0.025
aF0.025
aF0.025
aF0.025
aF0.025
aF0.025
aF0.025
aF0.025
aF0.025
aF0.025
aF0.025
aF0.354
aF0.708
assS'14 days'
p43
(dp44
g3
(lp45
F0.177
aF0.236
aF0.236
aF0.265
aF0.283
aF0.354
aF0.707
aF0.707
aF0.707
aF0.707
aF0.707
aF0.707
aF0.707
aF0.707
aF0.707
aF0.707
aF0.707
aF0.707
aF0.707
aF0.707
aF0.707
asg5
(lp46
F0.022
aF0.022
aF0.022
aF0.022
aF0.022
aF0.022
aF0.022
aF0.022
aF0.022
aF0.236
aF0.354
aF0.354
aF0.354
aF0.472
aF0.708
aF0.708
aF0.708
aF0.708
aF0.708
aF0.708
aF0.708
asg7
(lp47
F0.054
aF0.054
aF0.054
aF0.054
aF0.054
aF0.054
aF0.054
aF0.358
aF0.358
aF0.358
aF0.709
aF0.709
aF0.709
aF0.709
aF0.709
aF0.709
aF0.709
aF0.709
aF0.709
aF0.709
aF0.709
asg9
(lp48
F0.707
aF0.707
aF0.707
aF0.707
aF0.707
aF0.707
aF0.707
aF0.707
aF0.707
aF0.707
aF0.707
aF0.707
aF0.707
aF0.707
aF0.707
aF0.707
aF0.707
aF0.707
aF0.707
aF0.707
aF0.707
asg11
(lp49
F0.054
aF0.082
aF0.094
aF0.129
aF0.151
aF0.151
aF0.159
aF0.185
aF0.185
aF0.185
aF0.185
aF0.185
aF0.241
aF0.242
aF0.242
aF0.242
aF0.242
aF0.242
aF0.242
aF0.276
aF0.358
asg13
(lp50
F0.354
aF0.707
aF0.707
aF0.707
aF0.707
aF0.707
aF0.707
aF0.707
aF0.707
aF0.707
aF0.707
aF0.707
aF0.707
aF0.707
aF0.707
aF0.707
aF0.707
aF0.707
aF0.707
aF0.707
aF0.707
asg15
(lp51
F0.007
aF0.707
aF0.707
aF0.707
aF0.707
aF0.707
aF0.707
aF0.707
aF0.707
aF0.707
aF0.707
aF0.707
aF0.707
aF0.707
aF0.707
aF0.707
aF0.707
aF0.707
aF0.707
aF0.707
aF0.707
asg17
(lp52
F0.016
aF0.472
aF0.472
aF0.707
aF0.707
aF0.707
aF0.707
aF0.707
aF0.707
aF0.707
aF0.707
aF0.707
aF0.707
aF0.707
aF0.707
aF0.707
aF0.707
aF0.707
aF0.707
aF0.707
aF0.707
asg19
(lp53
F0.239
aF0.239
aF0.356
aF0.473
aF0.708
aF0.708
aF0.708
aF0.708
aF0.708
aF0.708
aF0.708
aF0.708
aF0.708
aF0.708
aF0.708
aF0.708
aF0.708
aF0.708
aF0.708
aF0.708
aF0.708
assS'1 day'
p54
(dp55
g3
(lp56
F0.001
aF0.001
aF0.001
aF0.001
aF0.001
aF0.001
aF0.001
aF0.001
aF0.001
aF0.001
aF0.001
aF0.001
aF0.001
aF0.001
aF0.001
aF0.001
aF0.001
aF0.001
aF0.001
aF0.001
aF0.001
asg5
(lp57
F0.267
aF0.267
aF0.268
aF0.268
aF0.269
aF0.275
aF0.285
aF0.295
aF0.301
aF0.307
aF0.318
aF0.322
aF0.335
aF0.335
aF0.335
aF0.335
aF0.337
aF0.338
aF0.35
aF0.353
aF0.356
asg7
(lp58
F0.25
aF0.263
aF0.267
aF0.267
aF0.267
aF0.267
aF0.271
aF0.271
aF0.271
aF0.271
aF0.272
aF0.275
aF0.28
aF0.282
aF0.294
aF0.346
aF0.383
aF0.399
aF0.437
aF0.45
aF0.454
asg9
(lp59
F0.045
aF0.045
aF0.045
aF0.045
aF0.045
aF0.045
aF0.047
aF0.047
aF0.047
aF0.05
aF0.05
aF0.05
aF0.05
aF0.05
aF0.05
aF0.05
aF0.05
aF0.05
aF0.05
aF0.05
aF0.24
asg11
(lp60
F0.156
aF0.156
aF0.157
aF0.157
aF0.157
aF0.158
aF0.158
aF0.158
aF0.18
aF0.18
aF0.186
aF0.186
aF0.186
aF0.196
aF0.222
aF0.249
aF0.25
aF0.288
aF0.338
aF0.343
aF0.357
asg13
(lp61
F0.023
aF0.025
aF0.025
aF0.026
aF0.026
aF0.026
aF0.026
aF0.026
aF0.12
aF0.159
aF0.237
aF0.237
aF0.266
aF0.304
aF0.354
aF0.354
aF0.354
aF0.355
aF0.425
aF0.708
aF0.708
asg15
(lp62
F0.707
aF0.707
aF0.707
aF0.707
aF0.707
aF0.707
aF0.707
aF0.707
aF0.707
aF0.707
aF0.707
aF0.707
aF0.707
aF0.707
aF0.707
aF0.707
aF0.707
aF0.707
aF0.707
aF0.707
aF0.707
asg17
(lp63
F0.021
aF0.021
aF0.021
aF0.021
aF0.025
aF0.038
aF0.038
aF0.052
aF0.059
aF0.081
aF0.09
aF0.091
aF0.098
aF0.103
aF0.108
aF0.143
aF0.213
aF0.219
aF0.225
aF0.237
aF0.245
asg19
(lp64
F0.298
aF0.299
aF0.318
aF0.325
aF0.325
aF0.326
aF0.327
aF0.329
aF0.331
aF0.333
aF0.333
aF0.336
aF0.341
aF0.346
aF0.362
aF0.364
aF0.366
aF0.377
aF0.385
aF0.394
aF0.411
assS'30 days'
p65
(dp66
g3
(lp67
F0.023
aF0.023
aF0.023
aF0.023
aF0.023
aF0.023
aF0.023
aF0.023
aF0.023
aF0.023
aF0.023
aF0.023
aF0.023
aF0.023
aF0.023
aF0.023
aF0.023
aF0.023
aF0.023
aF0.023
aF0.178
asg5
(lp68
F0.027
aF0.027
aF0.027
aF0.027
aF0.027
aF0.027
aF0.027
aF0.027
aF0.027
aF0.027
aF0.027
aF0.027
aF0.708
aF0.708
aF0.708
aF0.708
aF0.708
aF0.708
aF0.708
aF0.708
aF0.708
asg7
(lp69
F0.357
aF0.357
aF0.474
aF0.474
aF0.488
aF0.709
aF0.709
aF0.709
aF0.709
aF0.709
aF0.709
aF0.709
aF0.709
aF0.709
aF0.709
aF0.709
aF0.709
aF0.709
aF0.709
aF0.709
aF0.709
asg9
(lp70
F0.012
aF0.012
aF0.012
aF0.012
aF0.012
aF0.012
aF0.012
aF0.707
aF0.707
aF0.707
aF0.707
aF0.707
aF0.707
aF0.707
aF0.707
aF0.707
aF0.707
aF0.707
aF0.707
aF0.707
aF0.707
asg11
(lp71
F0.056
aF0.056
aF0.057
aF0.057
aF0.057
aF0.186
aF0.186
aF0.242
aF0.242
aF0.288
aF0.288
aF0.358
aF0.401
aF0.446
aF0.498
aF0.508
aF0.508
aF0.521
aF0.709
aF0.709
aF0.709
asg13
(lp72
F0.025
aF0.026
aF0.026
aF0.026
aF0.091
aF0.13
aF0.237
aF0.237
aF0.354
aF0.355
aF0.355
aF0.355
aF0.355
aF0.355
aF0.386
aF0.389
aF0.425
aF0.425
aF0.472
aF0.708
aF0.708
asg15
(lp73
F0.022
aF0.178
aF0.354
aF0.434
aF0.472
aF0.472
aF0.472
aF0.49
aF0.495
aF0.505
aF0.707
aF0.707
aF0.707
aF0.707
aF0.707
aF0.707
aF0.707
aF0.707
aF0.707
aF0.707
aF0.707
asg17
(lp74
F0.017
aF0.017
aF0.017
aF0.017
aF0.017
aF0.236
aF0.236
aF0.354
aF0.472
aF0.472
aF0.707
aF0.707
aF0.707
aF0.707
aF0.707
aF0.707
aF0.707
aF0.707
aF0.707
aF0.707
aF0.707
asg19
(lp75
F0.046
aF0.046
aF0.357
aF0.427
aF0.456
aF0.456
aF0.709
aF0.709
aF0.709
aF0.709
aF0.709
aF0.709
aF0.709
aF0.709
aF0.709
aF0.709
aF0.709
aF0.709
aF0.709
aF0.709
aF0.709
assS'7 days'
p76
(dp77
g3
(lp78
F0.003
aF0.003
aF0.003
aF0.003
aF0.003
aF0.003
aF0.003
aF0.003
aF0.003
aF0.003
aF0.003
aF0.003
aF0.003
aF0.003
aF0.003
aF0.003
aF0.003
aF0.003
aF0.003
aF0.003
aF0.003
asg5
(lp79
F0.105
aF0.105
aF0.105
aF0.109
aF0.109
aF0.109
aF0.109
aF0.109
aF0.109
aF0.109
aF0.109
aF0.109
aF0.109
aF0.109
aF0.109
aF0.109
aF0.109
aF0.205
aF0.417
aF0.455
aF0.455
asg7
(lp80
F0.288
aF0.29
aF0.29
aF0.291
aF0.298
aF0.302
aF0.305
aF0.325
aF0.327
aF0.328
aF0.335
aF0.343
aF0.352
aF0.358
aF0.37
aF0.383
aF0.387
aF0.396
aF0.399
aF0.451
aF0.453
asg9
(lp81
F0.037
aF0.038
aF0.038
aF0.038
aF0.038
aF0.04
aF0.04
aF0.04
aF0.04
aF0.042
aF0.042
aF0.042
aF0.042
aF0.042
aF0.146
aF0.181
aF0.332
aF0.473
aF0.496
aF0.708
aF0.708
asg11
(lp82
F0.27
aF0.27
aF0.271
aF0.297
aF0.313
aF0.341
aF0.369
aF0.378
aF0.393
aF0.425
aF0.438
aF0.447
aF0.46
aF0.465
aF0.477
aF0.499
aF0.506
aF0.51
aF0.513
aF0.515
aF0.72
asg13
(lp83
F0.026
aF0.026
aF0.026
aF0.026
aF0.026
aF0.026
aF0.026
aF0.026
aF0.026
aF0.026
aF0.026
aF0.026
aF0.026
aF0.026
aF0.026
aF0.026
aF0.026
aF0.026
aF0.026
aF0.026
aF0.026
asg15
(lp84
F0.004
aF0.004
aF0.004
aF0.004
aF0.004
aF0.004
aF0.004
aF0.004
aF0.004
aF0.004
aF0.004
aF0.004
aF0.354
aF0.354
aF0.354
aF0.707
aF0.707
aF0.707
aF0.707
aF0.707
aF0.707
asg17
(lp85
F0.024
aF0.024
aF0.024
aF0.024
aF0.025
aF0.025
aF0.025
aF0.025
aF0.025
aF0.025
aF0.025
aF0.178
aF0.203
aF0.203
aF0.354
aF0.354
aF0.354
aF0.354
aF0.472
aF0.589
aF0.708
asg19
(lp86
F0.181
aF0.181
aF0.182
aF0.182
aF0.182
aF0.182
aF0.182
aF0.227
aF0.252
aF0.252
aF0.269
aF0.297
aF0.297
aF0.297
aF0.297
aF0.297
aF0.297
aF0.333
aF0.367
aF0.398
aF0.444
ass.