(dp0
S'optdigits'
p1
(lp2
F0.0
aF0.0
aF0.0
aF0.0
aF0.006
aF0.009
aF0.012
aF0.012
aF0.019
aF0.025
aF0.025
aF0.025
aF0.036
aF0.044
aF0.044
aF0.048
aF0.048
aF0.054
aF0.068
aF0.162
aF0.171
asS'cancer'
p3
(lp4
F0.032
aF0.035
aF0.035
aF0.039
aF0.039
aF0.049
aF0.049
aF0.052
aF0.062
aF0.064
aF0.064
aF0.072
aF0.075
aF0.084
aF0.084
aF0.129
aF0.135
aF0.16
aF0.171
aF0.196
aF0.208
asS'image'
p5
(lp6
F0.0
aF0.0
aF0.0
aF0.0
aF0.0
aF0.0
aF0.011
aF0.011
aF0.011
aF0.011
aF0.011
aF0.021
aF0.021
aF0.024
aF0.03
aF0.04
aF0.059
aF0.085
aF0.109
aF0.131
aF0.151
asS'covtype'
p7
(lp8
F0.0
aF0.0
aF0.0
aF0.0
aF0.0
aF0.0
aF0.0
aF0.0
aF0.0
aF0.0
aF0.0
aF0.0
aF0.0
aF0.0
aF0.0
aF0.0
aF0.001
aF0.149
aF0.155
aF0.158
aF0.191
asS'biodegrade'
p9
(lp10
F0.138
aF0.145
aF0.149
aF0.153
aF0.153
aF0.154
aF0.182
aF0.184
aF0.196
aF0.213
aF0.228
aF0.23
aF0.23
aF0.239
aF0.242
aF0.244
aF0.25
aF0.253
aF0.256
aF0.291
aF0.339
asS'blood-transfusion'
p11
(lp12
F0.132
aF0.132
aF0.155
aF0.158
aF0.158
aF0.158
aF0.158
aF0.163
aF0.163
aF0.163
aF0.163
aF0.163
aF0.163
aF0.163
aF0.166
aF0.166
aF0.166
aF0.166
aF0.238
aF0.502
aF0.508
asS'autism'
p13
(lp14
F0.0
aF0.0
aF0.0
aF0.0
aF0.0
aF0.0
aF0.0
aF0.0
aF0.019
aF0.037
aF0.039
aF0.039
aF0.043
aF0.052
aF0.064
aF0.069
aF0.072
aF0.076
aF0.086
aF0.177
aF0.192
asS'shop-intention'
p15
(lp16
F0.136
aF0.154
aF0.17
aF0.216
aF0.223
aF0.237
aF0.24
aF0.248
aF0.253
aF0.258
aF0.259
aF0.259
aF0.26
aF0.261
aF0.268
aF0.269
aF0.274
aF0.285
aF0.33
aF0.332
aF0.332
asS'annealing'
p17
(lp18
F0.076
aF0.089
aF0.089
aF0.089
aF0.089
aF0.089
aF0.089
aF0.089
aF0.178
aF0.207
aF0.208
aF0.208
aF0.279
aF0.284
aF0.359
aF0.362
aF0.362
aF0.362
aF0.362
aF0.362
aF0.376
asS'waveform'
p19
(lp20
F0.081
aF0.081
aF0.082
aF0.082
aF0.083
aF0.084
aF0.084
aF0.084
aF0.087
aF0.091
aF0.099
aF0.11
aF0.114
aF0.117
aF0.149
aF0.156
aF0.165
aF0.166
aF0.227
aF0.227
aF0.271
asS'shuttle'
p21
(lp22
F0.001
aF0.001
aF0.002
aF0.004
aF0.005
aF0.007
aF0.007
aF0.009
aF0.011
aF0.012
aF0.012
aF0.016
aF0.038
aF0.039
aF0.04
aF0.041
aF0.045
aF0.045
aF0.101
aF0.103
aF0.134
asS'electric-stable'
p23
(lp24
F0.152
aF0.159
aF0.162
aF0.162
aF0.185
aF0.191
aF0.216
aF0.219
aF0.229
aF0.229
aF0.229
aF0.229
aF0.229
aF0.229
aF0.229
aF0.234
aF0.246
aF0.261
aF0.263
aF0.285
aF0.325
asS'satellite'
p25
(lp26
F0.0
aF0.0
aF0.0
aF0.0
aF0.0
aF0.0
aF0.0
aF0.0
aF0.0
aF0.002
aF0.002
aF0.006
aF0.061
aF0.079
aF0.124
aF0.132
aF0.132
aF0.138
aF0.139
aF0.139
aF0.186
asS'climate-sim'
p27
(lp28
F0.041
aF0.064
aF0.064
aF0.064
aF0.064
aF0.064
aF0.064
aF0.064
aF0.064
aF0.071
aF0.118
aF0.147
aF0.147
aF0.147
aF0.147
aF0.147
aF0.147
aF0.147
aF0.147
aF0.147
aF0.147
asS'cardiotocography'
p29
(lp30
F0.002
aF0.002
aF0.008
aF0.012
aF0.012
aF0.015
aF0.027
aF0.027
aF0.056
aF0.056
aF0.077
aF0.079
aF0.081
aF0.086
aF0.092
aF0.104
aF0.104
aF0.113
aF0.115
aF0.137
aF0.144
asS'mushroom'
p31
(lp32
F0.088
aF0.09
aF0.09
aF0.09
aF0.103
aF0.105
aF0.112
aF0.115
aF0.115
aF0.123
aF0.123
aF0.126
aF0.131
aF0.133
aF0.137
aF0.143
aF0.144
aF0.144
aF0.144
aF0.144
aF0.15
asS'hand'
p33
(lp34
F0.04
aF0.045
aF0.047
aF0.072
aF0.077
aF0.083
aF0.084
aF0.085
aF0.089
aF0.091
aF0.092
aF0.095
aF0.096
aF0.104
aF0.104
aF0.105
aF0.13
aF0.145
aF0.171
aF0.181
aF0.199
asS'htru2'
p35
(lp36
F0.032
aF0.034
aF0.035
aF0.036
aF0.039
aF0.041
aF0.043
aF0.044
aF0.044
aF0.044
aF0.044
aF0.044
aF0.045
aF0.047
aF0.047
aF0.049
aF0.049
aF0.059
aF0.066
aF0.069
aF0.074
asS'adult'
p37
(lp38
F0.169
aF0.186
aF0.198
aF0.216
aF0.217
aF0.235
aF0.236
aF0.241
aF0.242
aF0.245
aF0.246
aF0.246
aF0.246
aF0.254
aF0.254
aF0.262
aF0.298
aF0.298
aF0.315
aF0.326
aF0.326
asS'crowdsource'
p39
(lp40
F0.015
aF0.03
aF0.047
aF0.052
aF0.09
aF0.102
aF0.108
aF0.108
aF0.11
aF0.114
aF0.114
aF0.119
aF0.128
aF0.183
aF0.201
aF0.201
aF0.208
aF0.237
aF0.268
aF0.306
aF0.306
asS'drug-consumption'
p41
(lp42
F0.196
aF0.205
aF0.221
aF0.223
aF0.226
aF0.23
aF0.239
aF0.244
aF0.244
aF0.248
aF0.249
aF0.264
aF0.265
aF0.271
aF0.272
aF0.297
aF0.316
aF0.361
aF0.371
aF0.38
aF0.396
asS'credit-default'
p43
(lp44
F0.215
aF0.215
aF0.223
aF0.223
aF0.223
aF0.223
aF0.223
aF0.223
aF0.25
aF0.253
aF0.253
aF0.262
aF0.264
aF0.27
aF0.274
aF0.276
aF0.292
aF0.298
aF0.299
aF0.331
aF0.334
asS'cervical-cancer'
p45
(lp46
F0.037
aF0.037
aF0.037
aF0.042
aF0.042
aF0.042
aF0.042
aF0.042
aF0.103
aF0.103
aF0.103
aF0.129
aF0.212
aF0.212
aF0.218
aF0.218
aF0.218
aF0.218
aF0.252
aF0.258
aF0.258
asS'bank'
p47
(lp48
F0.181
aF0.184
aF0.184
aF0.189
aF0.191
aF0.193
aF0.202
aF0.207
aF0.226
aF0.229
aF0.25
aF0.269
aF0.316
aF0.324
aF0.349
aF0.349
aF0.349
aF0.349
aF0.349
aF0.349
aF0.424
asS'bankrupt'
p49
(lp50
F0.016
aF0.016
aF0.016
aF0.016
aF0.016
aF0.016
aF0.016
aF0.016
aF0.016
aF0.016
aF0.016
aF0.016
aF0.016
aF0.016
aF0.016
aF0.016
aF0.236
aF0.354
aF0.404
aF0.425
aF0.442
asS'audit'
p51
(lp52
F0.0
aF0.0
aF0.0
aF0.0
aF0.0
aF0.0
aF0.015
aF0.062
aF0.068
aF0.074
aF0.074
aF0.086
aF0.086
aF0.086
aF0.098
aF0.103
aF0.108
aF0.114
aF0.119
aF0.148
aF0.167
asS'contraceptive'
p53
(lp54
F0.272
aF0.274
aF0.277
aF0.277
aF0.277
aF0.299
aF0.302
aF0.31
aF0.312
aF0.315
aF0.318
aF0.322
aF0.322
aF0.343
aF0.356
aF0.379
aF0.397
aF0.398
aF0.405
aF0.419
aF0.443
asS'phishing'
p55
(lp56
F0.074
aF0.076
aF0.077
aF0.078
aF0.08
aF0.08
aF0.081
aF0.082
aF0.083
aF0.089
aF0.089
aF0.089
aF0.089
aF0.099
aF0.099
aF0.099
aF0.099
aF0.146
aF0.194
aF0.267
aF0.27
asS'car'
p57
(lp58
F0.009
aF0.009
aF0.009
aF0.009
aF0.009
aF0.009
aF0.027
aF0.057
aF0.064
aF0.082
aF0.089
aF0.089
aF0.089
aF0.105
aF0.136
aF0.136
aF0.136
aF0.136
aF0.136
aF0.136
aF0.136
asS'diabetic'
p59
(lp60
F0.267
aF0.274
aF0.279
aF0.282
aF0.292
aF0.296
aF0.3
aF0.33
aF0.353
aF0.354
aF0.356
aF0.361
aF0.361
aF0.374
aF0.374
aF0.382
aF0.388
aF0.397
aF0.399
aF0.399
aF0.468
asS'hepmass'
p61
(lp62
F0.068
aF0.068
aF0.07
aF0.07
aF0.073
aF0.073
aF0.075
aF0.082
aF0.083
aF0.083
aF0.085
aF0.089
aF0.091
aF0.094
aF0.094
aF0.121
aF0.143
aF0.148
aF0.165
aF0.18
aF0.192
asS'kddcup'
p63
(lp64
F0.0
aF0.0
aF0.001
aF0.001
aF0.001
aF0.001
aF0.001
aF0.001
aF0.001
aF0.004
aF0.004
aF0.004
aF0.004
aF0.004
aF0.007
aF0.011
aF0.028
aF0.07
aF0.115
aF0.145
aF0.165
asS'sensorless-drive'
p65
(lp66
F0.001
aF0.001
aF0.001
aF0.001
aF0.001
aF0.001
aF0.001
aF0.001
aF0.001
aF0.001
aF0.001
aF0.002
aF0.033
aF0.054
aF0.054
aF0.084
aF0.158
aF0.189
aF0.191
aF0.192
aF0.199
asS'pendigits'
p67
(lp68
F0.0
aF0.0
aF0.0
aF0.0
aF0.0
aF0.0
aF0.0
aF0.0
aF0.0
aF0.003
aF0.003
aF0.003
aF0.003
aF0.003
aF0.004
aF0.006
aF0.01
aF0.014
aF0.014
aF0.017
aF0.041
asS'credit-approval'
p69
(lp70
F0.046
aF0.046
aF0.046
aF0.046
aF0.046
aF0.046
aF0.057
aF0.057
aF0.061
aF0.065
aF0.078
aF0.078
aF0.081
aF0.085
aF0.085
aF0.085
aF0.085
aF0.085
aF0.088
aF0.124
aF0.141
asS'gamma'
p71
(lp72
F0.137
aF0.143
aF0.153
aF0.165
aF0.17
aF0.17
aF0.17
aF0.171
aF0.171
aF0.171
aF0.174
aF0.175
aF0.179
aF0.237
aF0.264
aF0.266
aF0.283
aF0.285
aF0.287
aF0.289
aF0.318
asS'liver'
p73
(lp74
F0.183
aF0.192
aF0.197
aF0.197
aF0.197
aF0.197
aF0.197
aF0.197
aF0.197
aF0.197
aF0.197
aF0.219
aF0.273
aF0.295
aF0.311
aF0.322
aF0.344
aF0.358
aF0.358
aF0.4
aF0.401
as.