(dp0
S'optdigits'
p1
(dp2
S'DT'
p3
(lp4
F0.038
aF0.022
aF0.018
aF0.012
aF0.031
aF0.017
aF0.022
aF0.014
aF0.024
aF0.025
aF0.022
aF0.019
aF0.038
aF0.019
aF0.033
aF0.019
aF0.009
aF0.027
aF0.03
aF0.019
asS'SVM'
p5
(lp6
F0.0
aF0.0
aF0.006
aF0.006
aF0.006
aF0.0
aF0.0
aF0.0
aF0.006
aF0.006
aF0.0
aF0.0
aF0.0
aF0.0
aF0.0
aF0.0
aF0.0
aF0.0
aF0.006
aF0.006
asS'RF'
p7
(lp8
F0.006
aF0.006
aF0.006
aF0.012
aF0.006
aF0.009
aF0.0
aF0.0
aF0.0
aF0.006
aF0.006
aF0.014
aF0.006
aF0.0
aF0.018
aF0.006
aF0.0
aF0.012
aF0.006
aF0.014
asS'FFT-Dist2Heaven'
p9
(lp10
F0.13
aF0.148
aF0.168
aF0.149
aF0.15
aF0.185
aF0.114
aF0.13
aF0.081
aF0.161
aF0.203
aF0.142
aF0.168
aF0.057
aF0.137
aF0.179
aF0.142
aF0.112
aF0.137
aF0.145
assS'cancer'
p11
(dp12
S'DT'
p13
(lp14
F0.039
aF0.045
aF0.136
aF0.046
aF0.053
aF0.076
aF0.071
aF0.079
aF0.085
aF0.105
aF0.093
aF0.064
aF0.094
aF0.088
aF0.068
aF0.084
aF0.077
aF0.055
aF0.068
aF0.091
asS'SVM'
p15
(lp16
F0.028
aF0.034
aF0.039
aF0.019
aF0.029
aF0.019
aF0.019
aF0.034
aF0.02
aF0.029
aF0.0
aF0.019
aF0.034
aF0.029
aF0.029
aF0.019
aF0.019
aF0.029
aF0.039
aF0.034
asS'RF'
p17
(lp18
F0.05
aF0.097
aF0.099
aF0.039
aF0.019
aF0.031
aF0.041
aF0.042
aF0.046
aF0.053
aF0.071
aF0.052
aF0.059
aF0.068
aF0.06
aF0.071
aF0.052
aF0.042
aF0.019
aF0.058
asg9
(lp19
F0.246
aF0.275
aF0.271
aF0.15
aF0.17
aF0.226
aF0.157
aF0.24
aF0.232
aF0.212
aF0.235
aF0.197
aF0.17
aF0.299
aF0.182
aF0.206
aF0.197
aF0.269
aF0.22
aF0.22
assS'image'
p20
(dp21
S'DT'
p22
(lp23
F0.0
aF0.0
aF0.0
aF0.0
aF0.0
aF0.0
aF0.0
aF0.0
aF0.0
aF0.0
aF0.0
aF0.0
aF0.0
aF0.0
aF0.0
aF0.0
aF0.0
aF0.0
aF0.0
aF0.0
asS'SVM'
p24
(lp25
F0.011
aF0.0
aF0.0
aF0.0
aF0.0
aF0.0
aF0.0
aF0.0
aF0.0
aF0.0
aF0.0
aF0.0
aF0.0
aF0.0
aF0.0
aF0.0
aF0.0
aF0.0
aF0.0
aF0.0
asS'RF'
p26
(lp27
F0.0
aF0.0
aF0.0
aF0.0
aF0.0
aF0.0
aF0.0
aF0.0
aF0.0
aF0.0
aF0.0
aF0.0
aF0.0
aF0.0
aF0.0
aF0.0
aF0.0
aF0.0
aF0.0
aF0.0
asg9
(lp28
F0.25
aF0.254
aF0.398
aF0.343
aF0.269
aF0.242
aF0.237
aF0.385
aF0.347
aF0.301
aF0.291
aF0.268
aF0.356
aF0.28
aF0.3
aF0.289
aF0.323
aF0.326
aF0.291
aF0.258
assS'covtype'
p29
(dp30
S'DT'
p31
(lp32
F0.0
aF0.0
aF0.0
aF0.0
aF0.0
aF0.0
aF0.0
aF0.0
aF0.0
aF0.0
aF0.0
aF0.0
aF0.0
aF0.0
aF0.0
aF0.0
aF0.0
aF0.0
aF0.0
aF0.0
asS'SVM'
p33
(lp34
F0.0
aF0.0
aF0.0
aF0.0
aF0.0
aF0.0
aF0.0
aF0.0
aF0.0
aF0.0
aF0.0
aF0.0
aF0.0
aF0.0
aF0.0
aF0.0
aF0.0
aF0.0
aF0.0
aF0.0
asS'RF'
p35
(lp36
F0.0
aF0.0
aF0.0
aF0.0
aF0.0
aF0.0
aF0.0
aF0.0
aF0.0
aF0.0
aF0.0
aF0.0
aF0.0
aF0.0
aF0.0
aF0.0
aF0.0
aF0.0
aF0.0
aF0.0
asg9
(lp37
F0.059
aF0.0
aF0.0
aF0.0
aF0.0
aF0.0
aF0.001
aF0.001
aF0.0
aF0.0
aF0.0
aF0.001
aF0.061
aF0.054
aF0.0
aF0.001
aF0.0
aF0.056
aF0.0
aF0.061
assS'biodegrade'
p38
(dp39
S'DT'
p40
(lp41
F0.186
aF0.223
aF0.21
aF0.255
aF0.239
aF0.231
aF0.205
aF0.301
aF0.154
aF0.259
aF0.219
aF0.252
aF0.214
aF0.225
aF0.196
aF0.248
aF0.188
aF0.219
aF0.207
aF0.177
asS'SVM'
p42
(lp43
F0.185
aF0.152
aF0.138
aF0.114
aF0.142
aF0.129
aF0.168
aF0.172
aF0.118
aF0.168
aF0.147
aF0.198
aF0.149
aF0.142
aF0.163
aF0.157
aF0.159
aF0.153
aF0.157
aF0.123
asS'RF'
p44
(lp45
F0.168
aF0.138
aF0.154
aF0.126
aF0.165
aF0.114
aF0.138
aF0.158
aF0.099
aF0.154
aF0.137
aF0.224
aF0.142
aF0.13
aF0.145
aF0.157
aF0.122
aF0.183
aF0.187
aF0.075
asg9
(lp46
F0.287
aF0.236
aF0.295
aF0.26
aF0.317
aF0.289
aF0.234
aF0.269
aF0.268
aF0.314
aF0.307
aF0.325
aF0.234
aF0.2
aF0.24
aF0.332
aF0.263
aF0.308
aF0.213
aF0.235
assS'blood-transfusion'
p47
(dp48
S'DT'
p49
(lp50
F0.467
aF0.497
aF0.487
aF0.441
aF0.478
aF0.467
aF0.401
aF0.465
aF0.517
aF0.485
aF0.479
aF0.447
aF0.517
aF0.479
aF0.478
aF0.513
aF0.456
aF0.487
aF0.448
aF0.411
asS'SVM'
p51
(lp52
F0.727
aF0.727
aF0.727
aF0.726
aF0.727
aF0.728
aF0.727
aF0.727
aF0.726
aF0.726
aF0.727
aF0.727
aF0.727
aF0.726
aF0.389
aF0.727
aF0.727
aF0.727
aF0.726
aF0.726
asS'RF'
p53
(lp54
F0.395
aF0.451
aF0.39
aF0.348
aF0.436
aF0.478
aF0.392
aF0.47
aF0.442
aF0.458
aF0.436
aF0.413
aF0.453
aF0.466
aF0.448
aF0.565
aF0.421
aF0.322
aF0.395
aF0.379
asg9
(lp55
F0.309
aF0.352
aF0.294
aF0.276
aF0.443
aF0.379
aF0.305
aF0.337
aF0.296
aF0.367
aF0.375
aF0.32
aF0.325
aF0.313
aF0.37
aF0.406
aF0.308
aF0.239
aF0.373
aF0.275
assS'autism'
p56
(dp57
S'DT'
p58
(lp59
F0.0
aF0.0
aF0.0
aF0.0
aF0.0
aF0.0
aF0.0
aF0.0
aF0.0
aF0.0
aF0.0
aF0.0
aF0.0
aF0.0
aF0.0
aF0.0
aF0.0
aF0.0
aF0.0
aF0.0
asS'SVM'
p60
(lp61
F0.0
aF0.0
aF0.0
aF0.0
aF0.0
aF0.0
aF0.0
aF0.0
aF0.0
aF0.0
aF0.0
aF0.0
aF0.0
aF0.0
aF0.0
aF0.0
aF0.0
aF0.0
aF0.0
aF0.0
asS'RF'
p62
(lp63
F0.0
aF0.0
aF0.0
aF0.0
aF0.0
aF0.0
aF0.0
aF0.0
aF0.0
aF0.0
aF0.0
aF0.0
aF0.0
aF0.0
aF0.0
aF0.0
aF0.0
aF0.0
aF0.0
aF0.0
asg9
(lp64
F0.223
aF0.235
aF0.161
aF0.167
aF0.199
aF0.198
aF0.214
aF0.23
aF0.173
aF0.184
aF0.254
aF0.175
aF0.189
aF0.201
aF0.191
aF0.228
aF0.266
aF0.231
aF0.181
aF0.183
assS'shop-intention'
p65
(dp66
S'DT'
p67
(lp68
F0.331
aF0.322
aF0.327
aF0.334
aF0.342
aF0.331
aF0.341
aF0.328
aF0.333
aF0.309
aF0.317
aF0.3
aF0.334
aF0.35
aF0.335
aF0.31
aF0.33
aF0.297
aF0.333
aF0.335
asS'SVM'
p69
(lp70
F0.212
aF0.179
aF0.197
aF0.183
aF0.194
aF0.173
aF0.207
aF0.189
aF0.191
aF0.205
aF0.195
aF0.217
aF0.194
aF0.165
aF0.197
aF0.157
aF0.194
aF0.206
aF0.2
aF0.202
asS'RF'
p71
(lp72
F0.197
aF0.209
aF0.185
aF0.225
aF0.175
aF0.188
aF0.195
aF0.211
aF0.191
aF0.189
aF0.198
aF0.198
aF0.204
aF0.191
aF0.214
aF0.181
aF0.204
aF0.191
aF0.209
aF0.195
asg9
(lp73
F0.389
aF0.381
aF0.388
aF0.381
aF0.392
aF0.385
aF0.393
aF0.377
aF0.383
aF0.391
aF0.38
aF0.387
aF0.402
aF0.383
aF0.367
aF0.38
aF0.385
aF0.387
aF0.389
aF0.38
assS'annealing'
p74
(dp75
S'DT'
p76
(lp77
F0.093
aF0.077
aF0.115
aF0.006
aF0.134
aF0.027
aF0.226
aF0.106
aF0.134
aF0.187
aF0.154
aF0.159
aF0.142
aF0.098
aF0.047
aF0.204
aF0.079
aF0.011
aF0.119
aF0.106
asS'SVM'
p78
(lp79
F0.713
aF0.713
aF0.713
aF0.713
aF0.713
aF0.713
aF0.713
aF0.713
aF0.713
aF0.713
aF0.713
aF0.713
aF0.713
aF0.713
aF0.713
aF0.713
aF0.713
aF0.713
aF0.713
aF0.713
asS'RF'
p80
(lp81
F0.093
aF0.07
aF0.126
aF0.085
aF0.135
aF0.027
aF0.169
aF0.091
aF0.193
aF0.159
aF0.101
aF0.135
aF0.057
aF0.057
aF0.052
aF0.086
aF0.079
aF0.043
aF0.169
aF0.091
asg9
(lp82
F0.328
aF0.294
aF0.311
aF0.266
aF0.311
aF0.322
aF0.294
aF0.272
aF0.396
aF0.294
aF0.322
aF0.232
aF0.339
aF0.334
aF0.317
aF0.288
aF0.3
aF0.272
aF0.317
aF0.328
assS'waveform'
p83
(dp84
S'DT'
p85
(lp86
F0.134
aF0.154
aF0.141
aF0.138
aF0.118
aF0.147
aF0.158
aF0.137
aF0.113
aF0.138
aF0.12
aF0.144
aF0.134
aF0.138
aF0.122
aF0.136
aF0.156
aF0.146
aF0.158
aF0.137
asS'SVM'
p87
(lp88
F0.082
aF0.08
aF0.08
aF0.082
aF0.081
aF0.078
aF0.09
aF0.082
aF0.064
aF0.09
aF0.075
aF0.071
aF0.085
aF0.087
aF0.079
aF0.08
aF0.088
aF0.073
aF0.07
aF0.089
asS'RF'
p89
(lp90
F0.124
aF0.121
aF0.104
aF0.126
aF0.121
aF0.124
aF0.113
aF0.122
aF0.082
aF0.108
aF0.101
aF0.096
aF0.12
aF0.111
aF0.094
aF0.107
aF0.109
aF0.109
aF0.127
aF0.121
asg9
(lp91
F0.403
aF0.372
aF0.37
aF0.382
aF0.393
aF0.424
aF0.374
aF0.401
aF0.421
aF0.375
aF0.352
aF0.373
aF0.407
aF0.406
aF0.377
aF0.372
aF0.382
aF0.412
aF0.387
aF0.416
assS'shuttle'
p92
(dp93
S'DT'
p94
(lp95
F0.0
aF0.001
aF0.0
aF0.001
aF0.0
aF0.0
aF0.001
aF0.0
aF0.0
aF0.0
aF0.0
aF0.0
aF0.0
aF0.001
aF0.0
aF0.0
aF0.0
aF0.0
aF0.0
aF0.001
asS'SVM'
p96
(lp97
F0.073
aF0.063
aF0.061
aF0.072
aF0.063
aF0.064
aF0.067
aF0.072
aF0.061
aF0.065
aF0.064
aF0.069
aF0.066
aF0.064
aF0.071
aF0.066
aF0.068
aF0.059
aF0.066
aF0.073
asS'RF'
p98
(lp99
F0.0
aF0.0
aF0.0
aF0.0
aF0.0
aF0.0
aF0.0
aF0.0
aF0.0
aF0.0
aF0.0
aF0.0
aF0.0
aF0.0
aF0.0
aF0.0
aF0.0
aF0.0
aF0.0
aF0.0
asg9
(lp100
F0.31
aF0.313
aF0.313
aF0.315
aF0.32
aF0.316
aF0.315
aF0.315
aF0.315
aF0.316
aF0.311
aF0.314
aF0.317
aF0.315
aF0.315
aF0.315
aF0.318
aF0.313
aF0.318
aF0.315
assS'electric-stable'
p101
(dp102
S'DT'
p103
(lp104
F0.174
aF0.189
aF0.171
aF0.175
aF0.181
aF0.166
aF0.168
aF0.164
aF0.163
aF0.171
aF0.166
aF0.178
aF0.184
aF0.161
aF0.176
aF0.163
aF0.175
aF0.178
aF0.173
aF0.17
asS'SVM'
p105
(lp106
F0.213
aF0.191
aF0.184
aF0.183
aF0.222
aF0.2
aF0.197
aF0.2
aF0.192
aF0.208
aF0.194
aF0.192
aF0.191
aF0.21
aF0.219
aF0.193
aF0.175
aF0.206
aF0.218
aF0.205
asS'RF'
p107
(lp108
F0.124
aF0.111
aF0.101
aF0.106
aF0.112
aF0.111
aF0.112
aF0.108
aF0.106
aF0.119
aF0.115
aF0.107
aF0.118
aF0.111
aF0.117
aF0.106
aF0.103
aF0.106
aF0.113
aF0.117
asg9
(lp109
F0.361
aF0.366
aF0.374
aF0.35
aF0.382
aF0.377
aF0.369
aF0.376
aF0.363
aF0.358
aF0.366
aF0.353
aF0.375
aF0.364
aF0.38
aF0.362
aF0.374
aF0.369
aF0.359
aF0.366
assS'satellite'
p110
(dp111
S'DT'
p112
(lp113
F0.055
aF0.03
aF0.024
aF0.007
aF0.02
aF0.041
aF0.036
aF0.045
aF0.031
aF0.033
aF0.022
aF0.03
aF0.033
aF0.027
aF0.025
aF0.018
aF0.064
aF0.025
aF0.015
aF0.027
asS'SVM'
p114
(lp115
F0.006
aF0.012
aF0.006
aF0.0
aF0.011
aF0.0
aF0.004
aF0.012
aF0.009
aF0.013
aF0.002
aF0.006
aF0.004
aF0.024
aF0.004
aF0.012
aF0.011
aF0.007
aF0.0
aF0.011
asS'RF'
p116
(lp117
F0.004
aF0.009
aF0.009
aF0.002
aF0.009
aF0.007
aF0.007
aF0.004
aF0.004
aF0.011
aF0.002
aF0.004
aF0.006
aF0.007
aF0.011
aF0.011
aF0.006
aF0.007
aF0.007
aF0.009
asg9
(lp118
F0.254
aF0.24
aF0.247
aF0.222
aF0.28
aF0.262
aF0.249
aF0.264
aF0.218
aF0.289
aF0.256
aF0.251
aF0.221
aF0.252
aF0.261
aF0.253
aF0.256
aF0.235
aF0.243
aF0.232
assS'climate-sim'
p119
(dp120
S'DT'
p121
(lp122
F0.507
aF0.204
aF0.357
aF0.516
aF0.425
aF0.395
aF0.552
aF0.436
aF0.121
aF0.413
aF0.436
aF0.444
aF0.236
aF0.284
aF0.146
aF0.622
aF0.474
aF0.395
aF0.355
aF0.103
asS'SVM'
p123
(lp124
F0.091
aF0.121
aF0.356
aF0.028
aF0.284
aF0.105
aF0.034
aF0.028
aF0.121
aF0.09
aF0.08
aF0.028
aF0.121
aF0.034
aF0.103
aF0.047
aF0.121
aF0.021
aF0.158
aF0.178
asS'RF'
p125
(lp126
F0.239
aF0.053
aF0.053
aF0.24
aF0.238
aF0.241
aF0.181
aF0.047
aF0.71
aF0.047
aF0.059
aF0.034
aF0.121
aF0.71
aF0.041
aF0.059
aF0.71
aF0.71
aF0.267
aF0.286
asg9
(lp127
F0.378
aF0.393
aF0.378
aF0.336
aF0.404
aF0.343
aF0.371
aF0.364
aF0.408
aF0.341
aF0.457
aF0.414
aF0.279
aF0.379
aF0.348
aF0.336
aF0.421
aF0.366
aF0.414
aF0.341
assS'cardiotocography'
p128
(dp129
S'DT'
p130
(lp131
F0.022
aF0.017
aF0.01
aF0.053
aF0.039
aF0.013
aF0.024
aF0.047
aF0.02
aF0.024
aF0.034
aF0.026
aF0.03
aF0.029
aF0.022
aF0.031
aF0.036
aF0.052
aF0.037
aF0.022
asS'SVM'
p132
(lp133
F0.002
aF0.011
aF0.008
aF0.027
aF0.01
aF0.011
aF0.009
aF0.018
aF0.009
aF0.004
aF0.019
aF0.01
aF0.018
aF0.011
aF0.0
aF0.019
aF0.008
aF0.017
aF0.01
aF0.006
asS'RF'
p134
(lp135
F0.006
aF0.006
aF0.01
aF0.022
aF0.012
aF0.013
aF0.013
aF0.029
aF0.008
aF0.006
aF0.018
aF0.02
aF0.009
aF0.013
aF0.0
aF0.02
aF0.018
aF0.012
aF0.013
aF0.011
asg9
(lp136
F0.272
aF0.382
aF0.297
aF0.33
aF0.343
aF0.31
aF0.298
aF0.384
aF0.3
aF0.335
aF0.313
aF0.309
aF0.325
aF0.34
aF0.314
aF0.362
aF0.332
aF0.308
aF0.286
aF0.334
assS'mushroom'
p137
(dp138
S'DT'
p139
(lp140
F0.0
aF0.0
aF0.0
aF0.0
aF0.0
aF0.0
aF0.0
aF0.0
aF0.0
aF0.0
aF0.0
aF0.0
aF0.0
aF0.0
aF0.0
aF0.0
aF0.0
aF0.0
aF0.0
aF0.0
asS'SVM'
p141
(lp142
F0.003
aF0.005
aF0.004
aF0.016
aF0.004
aF0.013
aF0.003
aF0.004
aF0.005
aF0.004
aF0.004
aF0.007
aF0.002
aF0.009
aF0.003
aF0.006
aF0.002
aF0.002
aF0.019
aF0.004
asS'RF'
p143
(lp144
F0.0
aF0.0
aF0.0
aF0.0
aF0.0
aF0.0
aF0.0
aF0.0
aF0.0
aF0.0
aF0.0
aF0.0
aF0.0
aF0.0
aF0.0
aF0.0
aF0.0
aF0.0
aF0.0
aF0.0
asg9
(lp145
F0.403
aF0.386
aF0.399
aF0.406
aF0.407
aF0.347
aF0.426
aF0.393
aF0.354
aF0.409
aF0.417
aF0.391
aF0.416
aF0.342
aF0.378
aF0.423
aF0.393
aF0.418
aF0.375
aF0.352
assS'hand'
p146
(dp147
S'DT'
p148
(lp149
F0.006
aF0.006
aF0.009
aF0.007
aF0.006
aF0.005
aF0.008
aF0.009
aF0.007
aF0.008
aF0.007
aF0.008
aF0.007
aF0.007
aF0.007
aF0.007
aF0.008
aF0.008
aF0.006
aF0.006
asS'SVM'
p150
(lp151
F0.131
aF0.129
aF0.131
aF0.13
aF0.127
aF0.13
aF0.125
aF0.133
aF0.13
aF0.128
aF0.131
aF0.127
aF0.134
aF0.13
aF0.129
aF0.13
aF0.131
aF0.13
aF0.13
aF0.129
asS'RF'
p152
(lp153
F0.004
aF0.004
aF0.006
aF0.004
aF0.005
aF0.004
aF0.005
aF0.005
aF0.006
aF0.006
aF0.006
aF0.005
aF0.005
aF0.005
aF0.005
aF0.003
aF0.006
aF0.005
aF0.005
aF0.006
asg9
(lp154
F0.342
aF0.343
aF0.342
aF0.339
aF0.356
aF0.343
aF0.344
aF0.333
aF0.348
aF0.354
aF0.335
aF0.345
aF0.351
aF0.346
aF0.344
aF0.349
aF0.344
aF0.337
aF0.338
aF0.355
assS'htru2'
p155
(dp156
S'DT'
p157
(lp158
F0.126
aF0.144
aF0.133
aF0.128
aF0.137
aF0.119
aF0.125
aF0.126
aF0.112
aF0.13
aF0.15
aF0.114
aF0.128
aF0.118
aF0.143
aF0.107
aF0.109
aF0.14
aF0.134
aF0.119
asS'SVM'
p159
(lp160
F0.036
aF0.053
aF0.027
aF0.04
aF0.044
aF0.039
aF0.039
aF0.034
aF0.044
aF0.039
aF0.064
aF0.026
aF0.042
aF0.026
aF0.039
aF0.038
aF0.042
aF0.045
aF0.034
aF0.045
asS'RF'
p161
(lp162
F0.045
aF0.065
aF0.034
aF0.057
aF0.056
aF0.05
aF0.052
aF0.062
aF0.051
aF0.046
aF0.081
aF0.032
aF0.054
aF0.052
aF0.048
aF0.044
aF0.054
aF0.055
aF0.046
aF0.042
asg9
(lp163
F0.103
aF0.098
aF0.122
aF0.107
aF0.115
aF0.115
aF0.106
aF0.098
aF0.107
aF0.115
aF0.106
aF0.104
aF0.109
aF0.107
aF0.112
aF0.102
aF0.116
aF0.108
aF0.103
aF0.118
assS'adult'
p164
(dp165
S'DT'
p166
(lp167
F0.293
aF0.288
aF0.289
aF0.291
aF0.307
aF0.287
aF0.292
aF0.291
aF0.29
aF0.292
aF0.29
aF0.291
aF0.289
aF0.293
aF0.293
aF0.295
aF0.294
aF0.287
aF0.285
aF0.289
asS'SVM'
p168
(lp169
F0.198
aF0.187
aF0.196
aF0.219
aF0.197
aF0.194
aF0.202
aF0.207
aF0.19
aF0.205
aF0.19
aF0.192
aF0.199
aF0.204
aF0.201
aF0.201
aF0.204
aF0.208
aF0.195
aF0.193
asS'RF'
p170
(lp171
F0.203
aF0.205
aF0.214
aF0.204
aF0.211
aF0.208
aF0.21
aF0.203
aF0.206
aF0.207
aF0.201
aF0.204
aF0.201
aF0.208
aF0.211
aF0.204
aF0.207
aF0.214
aF0.198
aF0.201
asg9
(lp172
F0.354
aF0.344
aF0.36
aF0.355
aF0.359
aF0.354
aF0.353
aF0.351
aF0.362
aF0.354
aF0.358
aF0.354
aF0.352
aF0.35
aF0.359
aF0.353
aF0.357
aF0.359
aF0.351
aF0.353
assS'crowdsource'
p173
(dp174
S'DT'
p175
(lp176
F0.084
aF0.088
aF0.073
aF0.085
aF0.065
aF0.122
aF0.052
aF0.105
aF0.078
aF0.078
aF0.05
aF0.062
aF0.125
aF0.101
aF0.121
aF0.066
aF0.103
aF0.092
aF0.078
aF0.084
asS'SVM'
p177
(lp178
F0.077
aF0.098
aF0.114
aF0.062
aF0.085
aF0.065
aF0.074
aF0.147
aF0.067
aF0.112
aF0.092
aF0.1
aF0.09
aF0.1
aF0.092
aF0.085
aF0.11
aF0.111
aF0.108
aF0.06
asS'RF'
p179
(lp180
F0.04
aF0.03
aF0.028
aF0.033
aF0.028
aF0.034
aF0.032
aF0.032
aF0.024
aF0.049
aF0.025
aF0.026
aF0.034
aF0.03
aF0.037
aF0.044
aF0.033
aF0.042
aF0.024
aF0.037
asg9
(lp181
F0.276
aF0.274
aF0.264
aF0.24
aF0.282
aF0.264
aF0.242
aF0.306
aF0.283
aF0.269
aF0.257
aF0.244
aF0.251
aF0.329
aF0.248
aF0.319
aF0.264
aF0.273
aF0.216
aF0.287
assS'drug-consumption'
p182
(dp183
S'DT'
p184
(lp185
F0.408
aF0.44
aF0.465
aF0.41
aF0.472
aF0.434
aF0.387
aF0.42
aF0.438
aF0.463
aF0.448
aF0.497
aF0.394
aF0.489
aF0.442
aF0.459
aF0.47
aF0.396
aF0.48
aF0.419
asS'SVM'
p186
(lp187
F0.278
aF0.352
aF0.378
aF0.345
aF0.169
aF0.316
aF0.238
aF0.28
aF0.389
aF0.325
aF0.275
aF0.381
aF0.362
aF0.371
aF0.326
aF0.27
aF0.338
aF0.39
aF0.336
aF0.276
asS'RF'
p188
(lp189
F0.419
aF0.438
aF0.318
aF0.426
aF0.285
aF0.307
aF0.314
aF0.397
aF0.389
aF0.39
aF0.357
aF0.288
aF0.309
aF0.403
aF0.31
aF0.326
aF0.249
aF0.323
aF0.4
aF0.363
asg9
(lp190
F0.347
aF0.413
aF0.364
aF0.387
aF0.389
aF0.346
aF0.41
aF0.368
aF0.396
aF0.379
aF0.359
aF0.371
aF0.376
aF0.394
aF0.373
aF0.405
aF0.372
aF0.389
aF0.366
aF0.41
assS'credit-default'
p191
(dp192
S'DT'
p193
(lp194
F0.458
aF0.444
aF0.454
aF0.447
aF0.447
aF0.449
aF0.453
aF0.444
aF0.452
aF0.441
aF0.462
aF0.45
aF0.452
aF0.455
aF0.455
aF0.448
aF0.449
aF0.448
aF0.443
aF0.45
asS'SVM'
p195
(lp196
F0.243
aF0.254
aF0.275
aF0.224
aF0.234
aF0.244
aF0.263
aF0.249
aF0.228
aF0.25
aF0.259
aF0.221
aF0.25
aF0.246
aF0.256
aF0.256
aF0.234
aF0.233
aF0.24
aF0.267
asS'RF'
p197
(lp198
F0.3
aF0.303
aF0.317
aF0.282
aF0.289
aF0.287
aF0.314
aF0.292
aF0.288
aF0.288
aF0.303
aF0.286
aF0.31
aF0.299
aF0.287
aF0.315
aF0.305
aF0.278
aF0.295
aF0.306
asg9
(lp199
F0.42
aF0.41
aF0.422
aF0.408
aF0.407
aF0.393
aF0.426
aF0.402
aF0.403
aF0.414
aF0.415
aF0.394
aF0.421
aF0.41
aF0.409
aF0.409
aF0.409
aF0.381
aF0.418
aF0.419
assS'cervical-cancer'
p200
(dp201
S'DT'
p202
(lp203
F0.12
aF0.203
aF0.203
aF0.354
aF0.394
aF0.157
aF0.272
aF0.283
aF0.426
aF0.272
aF0.089
aF0.236
aF0.236
aF0.405
aF0.237
aF0.236
aF0.404
aF0.473
aF0.315
aF0.355
asS'SVM'
p204
(lp205
F0.327
aF0.212
aF0.322
aF0.236
aF0.258
aF0.218
aF0.303
aF0.327
aF0.322
aF0.212
aF0.142
aF0.252
aF0.272
aF0.354
aF0.236
aF0.218
aF0.283
aF0.283
aF0.178
aF0.283
asS'RF'
p206
(lp207
F0.042
aF0.355
aF0.426
aF0.212
aF0.355
aF0.266
aF0.532
aF0.474
aF0.355
aF0.144
aF0.022
aF0.283
aF0.238
aF0.532
aF0.356
aF0.103
aF0.394
aF0.322
aF0.239
aF0.285
asg9
(lp208
F0.574
aF0.483
aF0.472
aF0.4
aF0.478
aF0.491
aF0.428
aF0.629
aF0.536
aF0.498
aF0.411
aF0.402
aF0.629
aF0.63
aF0.503
aF0.525
aF0.4
aF0.546
aF0.708
aF0.452
assS'bank'
p209
(dp210
S'DT'
p211
(lp212
F0.352
aF0.395
aF0.335
aF0.384
aF0.359
aF0.373
aF0.393
aF0.342
aF0.383
aF0.4
aF0.339
aF0.357
aF0.372
aF0.371
aF0.418
aF0.366
aF0.367
aF0.408
aF0.357
aF0.386
asS'SVM'
p213
(lp214
F0.251
aF0.302
aF0.237
aF0.181
aF0.298
aF0.278
aF0.307
aF0.086
aF0.237
aF0.312
aF0.187
aF0.286
aF0.273
aF0.322
aF0.211
aF0.217
aF0.295
aF0.279
aF0.144
aF0.279
asS'RF'
p215
(lp216
F0.351
aF0.293
aF0.197
aF0.31
aF0.249
aF0.291
aF0.339
aF0.209
aF0.327
aF0.302
aF0.22
aF0.297
aF0.264
aF0.322
aF0.378
aF0.295
aF0.295
aF0.295
aF0.26
aF0.339
asg9
(lp217
F0.453
aF0.467
aF0.444
aF0.381
aF0.43
aF0.458
aF0.444
aF0.427
aF0.418
aF0.416
aF0.434
aF0.45
aF0.409
aF0.407
aF0.414
aF0.434
aF0.438
aF0.429
aF0.424
aF0.398
assS'bankrupt'
p218
(dp219
S'DT'
p220
(lp221
F0.53
aF0.594
aF0.541
aF0.598
aF0.629
aF0.653
aF0.616
aF0.614
aF0.597
aF0.498
aF0.606
aF0.581
aF0.643
aF0.624
aF0.544
aF0.677
aF0.603
aF0.512
aF0.61
aF0.539
asS'SVM'
p222
(lp223
F0.707
aF0.707
aF0.707
aF0.707
aF0.707
aF0.707
aF0.707
aF0.707
aF0.707
aF0.707
aF0.707
aF0.707
aF0.707
aF0.707
aF0.707
aF0.707
aF0.707
aF0.707
aF0.707
aF0.707
asS'RF'
p224
(lp225
F0.707
aF0.472
aF0.707
aF0.531
aF0.707
aF0.472
aF0.354
aF0.472
aF0.707
aF0.531
aF0.472
aF0.283
aF0.707
aF0.707
aF0.707
aF0.707
aF0.707
aF0.707
aF0.472
aF0.425
asg9
(lp226
F0.353
aF0.296
aF0.275
aF0.333
aF0.288
aF0.279
aF0.294
aF0.277
aF0.35
aF0.355
aF0.35
aF0.388
aF0.289
aF0.198
aF0.287
aF0.369
aF0.217
aF0.288
aF0.352
aF0.306
assS'audit'
p227
(dp228
S'DT'
p229
(lp230
F0.0
aF0.0
aF0.0
aF0.0
aF0.0
aF0.0
aF0.0
aF0.0
aF0.0
aF0.0
aF0.0
aF0.0
aF0.0
aF0.0
aF0.0
aF0.0
aF0.0
aF0.0
aF0.0
aF0.0
asS'SVM'
p231
(lp232
F0.025
aF0.046
aF0.057
aF0.038
aF0.025
aF0.033
aF0.05
aF0.037
aF0.033
aF0.028
aF0.047
aF0.042
aF0.074
aF0.015
aF0.033
aF0.025
aF0.014
aF0.062
aF0.057
aF0.06
asS'RF'
p233
(lp234
F0.0
aF0.0
aF0.008
aF0.008
aF0.008
aF0.0
aF0.0
aF0.0
aF0.015
aF0.015
aF0.008
aF0.0
aF0.024
aF0.0
aF0.0
aF0.0
aF0.0
aF0.0
aF0.0
aF0.0
asg9
(lp235
F0.29
aF0.297
aF0.375
aF0.223
aF0.158
aF0.193
aF0.211
aF0.268
aF0.155
aF0.202
aF0.203
aF0.357
aF0.373
aF0.154
aF0.129
aF0.191
aF0.202
aF0.152
aF0.105
aF0.315
assS'contraceptive'
p236
(dp237
S'DT'
p238
(lp239
F0.329
aF0.358
aF0.379
aF0.391
aF0.365
aF0.374
aF0.359
aF0.396
aF0.36
aF0.334
aF0.369
aF0.4
aF0.352
aF0.364
aF0.407
aF0.359
aF0.433
aF0.349
aF0.361
aF0.398
asS'SVM'
p240
(lp241
F0.289
aF0.331
aF0.301
aF0.36
aF0.317
aF0.313
aF0.281
aF0.365
aF0.332
aF0.306
aF0.325
aF0.339
aF0.311
aF0.295
aF0.303
aF0.301
aF0.374
aF0.252
aF0.331
aF0.342
asS'RF'
p242
(lp243
F0.319
aF0.34
aF0.342
aF0.389
aF0.31
aF0.364
aF0.312
aF0.354
aF0.375
aF0.279
aF0.329
aF0.357
aF0.329
aF0.329
aF0.328
aF0.325
aF0.328
aF0.358
aF0.328
aF0.328
asg9
(lp244
F0.411
aF0.447
aF0.46
aF0.45
aF0.469
aF0.449
aF0.431
aF0.466
aF0.46
aF0.432
aF0.443
aF0.456
aF0.424
aF0.452
aF0.464
aF0.447
aF0.473
aF0.416
aF0.478
aF0.424
assS'phishing'
p245
(dp246
S'DT'
p247
(lp248
F0.042
aF0.039
aF0.039
aF0.038
aF0.036
aF0.046
aF0.031
aF0.034
aF0.042
aF0.038
aF0.037
aF0.036
aF0.042
aF0.042
aF0.036
aF0.043
aF0.042
aF0.037
aF0.043
aF0.029
asS'SVM'
p249
(lp250
F0.075
aF0.077
aF0.077
aF0.058
aF0.074
aF0.072
aF0.08
aF0.069
aF0.068
aF0.072
aF0.074
aF0.078
aF0.071
aF0.079
aF0.061
aF0.077
aF0.061
aF0.079
aF0.079
aF0.067
asS'RF'
p251
(lp252
F0.034
aF0.03
aF0.027
aF0.025
aF0.028
aF0.033
aF0.029
aF0.027
aF0.035
aF0.034
aF0.029
aF0.028
aF0.026
aF0.035
aF0.031
aF0.033
aF0.037
aF0.033
aF0.028
aF0.026
asg9
(lp253
F0.363
aF0.348
aF0.35
aF0.371
aF0.367
aF0.343
aF0.365
aF0.373
aF0.36
aF0.363
aF0.363
aF0.348
aF0.366
aF0.361
aF0.361
aF0.366
aF0.355
aF0.358
aF0.361
aF0.358
assS'car'
p254
(dp255
S'DT'
p256
(lp257
F0.014
aF0.009
aF0.013
aF0.003
aF0.003
aF0.015
aF0.006
aF0.008
aF0.014
aF0.014
aF0.015
aF0.0
aF0.008
aF0.015
aF0.003
aF0.015
aF0.04
aF0.0
aF0.024
aF0.0
asS'SVM'
p258
(lp259
F0.392
aF0.346
aF0.352
aF0.343
aF0.374
aF0.307
aF0.338
aF0.291
aF0.364
aF0.364
aF0.341
aF0.316
aF0.369
aF0.418
aF0.332
aF0.312
aF0.326
aF0.357
aF0.296
aF0.407
asS'RF'
p260
(lp261
F0.029
aF0.011
aF0.009
aF0.008
aF0.022
aF0.031
aF0.017
aF0.022
aF0.026
aF0.013
aF0.037
aF0.029
aF0.023
aF0.009
aF0.018
aF0.022
aF0.031
aF0.009
aF0.034
aF0.027
asg9
(lp262
F0.172
aF0.204
aF0.407
aF0.337
aF0.199
aF0.229
aF0.438
aF0.325
aF0.404
aF0.193
aF0.205
aF0.183
aF0.2
aF0.411
aF0.395
aF0.37
aF0.206
aF0.394
aF0.182
aF0.401
assS'diabetic'
p263
(dp264
S'DT'
p265
(lp266
F0.352
aF0.358
aF0.445
aF0.358
aF0.37
aF0.402
aF0.354
aF0.433
aF0.337
aF0.359
aF0.406
aF0.429
aF0.384
aF0.34
aF0.398
aF0.389
aF0.376
aF0.371
aF0.393
aF0.367
asS'SVM'
p267
(lp268
F0.36
aF0.268
aF0.306
aF0.281
aF0.293
aF0.311
aF0.289
aF0.276
aF0.268
aF0.342
aF0.293
aF0.337
aF0.304
aF0.274
aF0.297
aF0.315
aF0.302
aF0.285
aF0.316
aF0.297
asS'RF'
p269
(lp270
F0.321
aF0.362
aF0.335
aF0.315
aF0.305
aF0.362
aF0.329
aF0.347
aF0.367
aF0.349
aF0.356
aF0.379
aF0.355
aF0.31
aF0.331
aF0.376
aF0.335
aF0.326
aF0.366
aF0.351
asg9
(lp271
F0.508
aF0.452
aF0.551
aF0.476
aF0.478
aF0.492
aF0.473
aF0.487
aF0.476
aF0.495
aF0.436
aF0.507
aF0.505
aF0.409
aF0.503
aF0.435
aF0.532
aF0.454
aF0.506
aF0.506
assS'hepmass'
p272
(dp273
S'DT'
p274
(lp275
F0.137
aF0.143
aF0.168
aF0.137
aF0.165
aF0.155
aF0.153
aF0.137
aF0.147
aF0.133
aF0.147
aF0.113
aF0.1
aF0.133
aF0.162
aF0.128
aF0.18
aF0.123
aF0.153
aF0.13
asS'SVM'
p276
(lp277
F0.108
aF0.108
aF0.092
aF0.106
aF0.103
aF0.104
aF0.102
aF0.101
aF0.104
aF0.085
aF0.115
aF0.113
aF0.105
aF0.088
aF0.1
aF0.093
aF0.14
aF0.09
aF0.1
aF0.073
asS'RF'
p278
(lp279
F0.098
aF0.095
aF0.098
aF0.105
aF0.102
aF0.109
aF0.098
aF0.103
aF0.119
aF0.093
aF0.106
aF0.105
aF0.095
aF0.086
aF0.085
aF0.098
aF0.135
aF0.11
aF0.103
aF0.095
asg9
(lp280
F0.288
aF0.336
aF0.277
aF0.286
aF0.32
aF0.237
aF0.318
aF0.315
aF0.326
aF0.294
aF0.278
aF0.271
aF0.319
aF0.323
aF0.265
aF0.304
aF0.323
aF0.286
aF0.284
aF0.277
assS'kddcup'
p281
(dp282
S'DT'
p283
(lp284
F0.0
aF0.001
aF0.001
aF0.004
aF0.0
aF0.0
aF0.004
aF0.0
aF0.004
aF0.0
aF0.0
aF0.0
aF0.004
aF0.001
aF0.004
aF0.0
aF0.001
aF0.0
aF0.0
aF0.004
asS'SVM'
p285
(lp286
F0.001
aF0.0
aF0.001
aF0.0
aF0.0
aF0.004
aF0.0
aF0.0
aF0.0
aF0.0
aF0.0
aF0.0
aF0.001
aF0.001
aF0.0
aF0.0
aF0.0
aF0.001
aF0.001
aF0.0
asS'RF'
p287
(lp288
F0.0
aF0.0
aF0.0
aF0.004
aF0.0
aF0.0
aF0.0
aF0.0
aF0.004
aF0.0
aF0.0
aF0.0
aF0.004
aF0.0
aF0.0
aF0.0
aF0.0
aF0.0
aF0.0
aF0.004
asg9
(lp289
F0.348
aF0.356
aF0.334
aF0.361
aF0.324
aF0.324
aF0.343
aF0.356
aF0.349
aF0.351
aF0.341
aF0.316
aF0.374
aF0.434
aF0.337
aF0.34
aF0.31
aF0.35
aF0.371
aF0.353
assS'sensorless-drive'
p290
(dp291
S'DT'
p292
(lp293
F0.0
aF0.001
aF0.0
aF0.0
aF0.001
aF0.001
aF0.0
aF0.0
aF0.0
aF0.001
aF0.001
aF0.0
aF0.001
aF0.0
aF0.0
aF0.001
aF0.001
aF0.0
aF0.0
aF0.0
asS'SVM'
p294
(lp295
F0.0
aF0.001
aF0.0
aF0.001
aF0.001
aF0.001
aF0.0
aF0.0
aF0.0
aF0.001
aF0.001
aF0.0
aF0.001
aF0.0
aF0.0
aF0.001
aF0.001
aF0.0
aF0.0
aF0.0
asS'RF'
p296
(lp297
F0.0
aF0.001
aF0.0
aF0.0
aF0.001
aF0.001
aF0.0
aF0.0
aF0.0
aF0.001
aF0.001
aF0.0
aF0.001
aF0.0
aF0.0
aF0.001
aF0.001
aF0.0
aF0.0
aF0.0
asg9
(lp298
F0.293
aF0.315
aF0.288
aF0.294
aF0.291
aF0.317
aF0.306
aF0.297
aF0.292
aF0.275
aF0.272
aF0.288
aF0.305
aF0.315
aF0.301
aF0.301
aF0.298
aF0.273
aF0.294
aF0.32
assS'pendigits'
p299
(dp300
S'DT'
p301
(lp302
F0.0
aF0.0
aF0.0
aF0.0
aF0.0
aF0.0
aF0.003
aF0.003
aF0.0
aF0.003
aF0.003
aF0.0
aF0.003
aF0.006
aF0.0
aF0.0
aF0.0
aF0.0
aF0.006
aF0.0
asS'SVM'
p303
(lp304
F0.0
aF0.0
aF0.0
aF0.0
aF0.0
aF0.0
aF0.0
aF0.0
aF0.0
aF0.0
aF0.0
aF0.0
aF0.0
aF0.0
aF0.0
aF0.0
aF0.0
aF0.0
aF0.0
aF0.0
asS'RF'
p305
(lp306
F0.0
aF0.0
aF0.0
aF0.003
aF0.0
aF0.0
aF0.0
aF0.0
aF0.0
aF0.003
aF0.0
aF0.0
aF0.0
aF0.004
aF0.0
aF0.0
aF0.0
aF0.0
aF0.0
aF0.0
asg9
(lp307
F0.256
aF0.26
aF0.26
aF0.234
aF0.235
aF0.243
aF0.275
aF0.203
aF0.281
aF0.203
aF0.234
aF0.256
aF0.277
aF0.248
aF0.227
aF0.246
aF0.245
aF0.242
aF0.244
aF0.235
assS'credit-approval'
p308
(dp309
S'DT'
p310
(lp311
F0.144
aF0.2
aF0.202
aF0.257
aF0.143
aF0.148
aF0.222
aF0.228
aF0.191
aF0.17
aF0.167
aF0.219
aF0.118
aF0.233
aF0.225
aF0.127
aF0.239
aF0.199
aF0.22
aF0.183
asS'SVM'
p312
(lp313
F0.146
aF0.125
aF0.164
aF0.157
aF0.153
aF0.119
aF0.187
aF0.186
aF0.113
aF0.134
aF0.136
aF0.129
aF0.129
aF0.176
aF0.178
aF0.162
aF0.181
aF0.117
aF0.141
aF0.146
asS'RF'
p314
(lp315
F0.115
aF0.105
aF0.152
aF0.155
aF0.128
aF0.13
aF0.146
aF0.181
aF0.135
aF0.122
aF0.18
aF0.12
aF0.129
aF0.12
aF0.173
aF0.112
aF0.15
aF0.128
aF0.155
aF0.114
asg9
(lp316
F0.273
aF0.243
aF0.327
aF0.337
aF0.322
aF0.23
aF0.371
aF0.315
aF0.383
aF0.316
aF0.284
aF0.279
aF0.346
aF0.327
aF0.368
aF0.295
aF0.363
aF0.308
aF0.329
aF0.377
assS'gamma'
p317
(dp318
S'DT'
p319
(lp320
F0.224
aF0.201
aF0.202
aF0.231
aF0.214
aF0.213
aF0.208
aF0.212
aF0.216
aF0.206
aF0.212
aF0.219
aF0.209
aF0.199
aF0.209
aF0.215
aF0.207
aF0.208
aF0.208
aF0.211
asS'SVM'
p321
(lp322
F0.232
aF0.222
aF0.218
aF0.214
aF0.209
aF0.214
aF0.221
aF0.221
aF0.215
aF0.232
aF0.224
aF0.222
aF0.223
aF0.216
aF0.216
aF0.238
aF0.198
aF0.224
aF0.215
aF0.227
asS'RF'
p323
(lp324
F0.135
aF0.128
aF0.128
aF0.125
aF0.137
aF0.133
aF0.134
aF0.137
aF0.132
aF0.13
aF0.134
aF0.131
aF0.118
aF0.142
aF0.131
aF0.134
aF0.125
aF0.137
aF0.135
aF0.135
asg9
(lp325
F0.395
aF0.399
aF0.38
aF0.391
aF0.395
aF0.395
aF0.385
aF0.4
aF0.39
aF0.39
aF0.396
aF0.403
aF0.376
aF0.402
aF0.384
aF0.37
aF0.404
aF0.397
aF0.388
aF0.397
assS'liver'
p326
(dp327
S'DT'
p328
(lp329
F0.453
aF0.433
aF0.486
aF0.412
aF0.43
aF0.448
aF0.409
aF0.452
aF0.499
aF0.388
aF0.377
aF0.491
aF0.433
aF0.421
aF0.477
aF0.49
aF0.412
aF0.516
aF0.549
aF0.486
asS'SVM'
p330
(lp331
F0.735
aF0.735
aF0.735
aF0.735
aF0.736
aF0.735
aF0.735
aF0.735
aF0.735
aF0.736
aF0.735
aF0.735
aF0.735
aF0.735
aF0.736
aF0.735
aF0.735
aF0.735
aF0.735
aF0.736
asS'RF'
p332
(lp333
F0.429
aF0.481
aF0.478
aF0.483
aF0.391
aF0.318
aF0.419
aF0.355
aF0.582
aF0.346
aF0.392
aF0.563
aF0.464
aF0.429
aF0.465
aF0.385
aF0.458
aF0.412
aF0.413
aF0.484
asg9
(lp334
F0.322
aF0.471
aF0.425
aF0.494
aF0.392
aF0.335
aF0.331
aF0.418
aF0.458
aF0.401
aF0.399
aF0.435
aF0.32
aF0.406
aF0.455
aF0.337
aF0.429
aF0.442
aF0.449
aF0.392
ass.