(dp0
S'DT'
p1
(lp2
F0.0
aF0.001
aF0.0
aF0.0
aF0.001
aF0.001
aF0.0
aF0.0
aF0.0
aF0.001
aF0.001
aF0.0
aF0.001
aF0.0
aF0.0
aF0.001
aF0.001
aF0.0
aF0.0
aF0.0
asS'SVM'
p3
(lp4
F0.0
aF0.001
aF0.0
aF0.001
aF0.001
aF0.001
aF0.0
aF0.0
aF0.0
aF0.001
aF0.001
aF0.0
aF0.001
aF0.0
aF0.0
aF0.001
aF0.001
aF0.0
aF0.0
aF0.0
asS'RF'
p5
(lp6
F0.0
aF0.001
aF0.0
aF0.0
aF0.001
aF0.001
aF0.0
aF0.0
aF0.0
aF0.001
aF0.001
aF0.0
aF0.001
aF0.0
aF0.0
aF0.001
aF0.001
aF0.0
aF0.0
aF0.0
asS'FFT1'
p7
(lp8
F0.293
aF0.315
aF0.288
aF0.294
aF0.291
aF0.317
aF0.306
aF0.297
aF0.292
aF0.275
aF0.272
aF0.288
aF0.305
aF0.315
aF0.301
aF0.301
aF0.298
aF0.273
aF0.294
aF0.32
as.