(dp0
S'DT'
p1
(lp2
F0.329
aF0.358
aF0.379
aF0.391
aF0.365
aF0.374
aF0.359
aF0.396
aF0.36
aF0.334
aF0.369
aF0.4
aF0.352
aF0.364
aF0.407
aF0.359
aF0.433
aF0.349
aF0.361
aF0.398
asS'SVM'
p3
(lp4
F0.289
aF0.331
aF0.301
aF0.36
aF0.317
aF0.313
aF0.281
aF0.365
aF0.332
aF0.306
aF0.325
aF0.339
aF0.311
aF0.295
aF0.303
aF0.301
aF0.374
aF0.252
aF0.331
aF0.342
asS'RF'
p5
(lp6
F0.319
aF0.34
aF0.342
aF0.389
aF0.31
aF0.364
aF0.312
aF0.354
aF0.375
aF0.279
aF0.329
aF0.357
aF0.329
aF0.329
aF0.328
aF0.325
aF0.328
aF0.358
aF0.328
aF0.328
asS'FFT1'
p7
(lp8
F0.411
aF0.447
aF0.46
aF0.45
aF0.469
aF0.449
aF0.431
aF0.466
aF0.46
aF0.432
aF0.443
aF0.456
aF0.424
aF0.452
aF0.464
aF0.447
aF0.473
aF0.416
aF0.478
aF0.424
as.