(dp0
S'DT'
p1
(lp2
F0.038
aF0.022
aF0.018
aF0.012
aF0.031
aF0.017
aF0.022
aF0.014
aF0.024
aF0.025
aF0.022
aF0.019
aF0.038
aF0.019
aF0.033
aF0.019
aF0.009
aF0.027
aF0.03
aF0.019
asS'SVM'
p3
(lp4
F0.0
aF0.0
aF0.006
aF0.006
aF0.006
aF0.0
aF0.0
aF0.0
aF0.006
aF0.006
aF0.0
aF0.0
aF0.0
aF0.0
aF0.0
aF0.0
aF0.0
aF0.0
aF0.006
aF0.006
asS'RF'
p5
(lp6
F0.006
aF0.006
aF0.006
aF0.012
aF0.006
aF0.009
aF0.0
aF0.0
aF0.0
aF0.006
aF0.006
aF0.014
aF0.006
aF0.0
aF0.018
aF0.006
aF0.0
aF0.012
aF0.006
aF0.014
asS'FFT1'
p7
(lp8
F0.13
aF0.148
aF0.168
aF0.149
aF0.15
aF0.185
aF0.114
aF0.13
aF0.081
aF0.161
aF0.203
aF0.142
aF0.168
aF0.057
aF0.137
aF0.179
aF0.142
aF0.112
aF0.137
aF0.145
as.