(dp0
S'DT'
p1
(lp2
F0.0
aF0.0
aF0.0
aF0.0
aF0.0
aF0.0
aF0.0
aF0.0
aF0.0
aF0.0
aF0.0
aF0.0
aF0.0
aF0.0
aF0.0
aF0.0
aF0.0
aF0.0
aF0.0
aF0.0
asS'SVM'
p3
(lp4
F0.003
aF0.005
aF0.004
aF0.016
aF0.004
aF0.013
aF0.003
aF0.004
aF0.005
aF0.004
aF0.004
aF0.007
aF0.002
aF0.009
aF0.003
aF0.006
aF0.002
aF0.002
aF0.019
aF0.004
asS'RF'
p5
(lp6
F0.0
aF0.0
aF0.0
aF0.0
aF0.0
aF0.0
aF0.0
aF0.0
aF0.0
aF0.0
aF0.0
aF0.0
aF0.0
aF0.0
aF0.0
aF0.0
aF0.0
aF0.0
aF0.0
aF0.0
asS'FFT1'
p7
(lp8
F0.403
aF0.386
aF0.399
aF0.406
aF0.407
aF0.347
aF0.426
aF0.393
aF0.354
aF0.409
aF0.417
aF0.391
aF0.416
aF0.342
aF0.378
aF0.423
aF0.393
aF0.418
aF0.375
aF0.352
as.