(dp0
S'temp'
p1
(dp2
F0.1
(lp3
F0.402
aF0.402
aF0.402
aF0.402
aF0.838
aF0.838
aF0.838
aF0.838
aF0.838
aF0.838
aF0.838
aF0.838
aF0.838
aF0.838
aF0.838
aF0.838
aF0.838
aF0.838
aF0.838
aF0.838
aF0.838
aF0.838
aF0.838
aF0.838
aF0.838
aF0.838
aF0.838
aF0.838
aF0.838
aF0.838
aF0.838
aF0.838
aF0.838
aF0.838
aF0.838
aF0.838
aF0.838
aF0.838
aF0.838
aF0.838
aF0.838
aF0.838
aF0.838
aF0.838
aF0.838
aF0.838
aF0.838
aF0.838
aF0.838
aF0.838
aF0.838
aF0.838
aF0.838
aF0.838
aF0.838
aF0.838
aF0.838
aF0.838
aF0.838
aF0.838
aF0.838
aF0.838
aF0.838
aF0.838
aF0.838
aF0.838
aF0.838
aF0.838
aF0.838
aF0.838
aF0.838
aF0.838
aF0.838
aF0.838
aF0.838
aF0.838
aF0.838
aF0.838
aF0.838
aF0.838
aF0.838
aF0.838
aF0.838
aF0.838
aF0.838
aF0.838
aF0.838
aF0.838
aF0.838
aF0.838
aF0.838
aF0.838
aF0.838
aF0.838
aF0.838
aF0.838
aF0.838
aF0.838
aF0.838
aF0.838
aF0.838
aF0.838
aF0.838
aF0.838
aF0.838
aF0.838
aF0.838
aF0.838
aF0.838
aF0.838
aF0.838
aF0.838
aF0.838
aF0.838
aF0.838
aF0.838
aF0.838
aF0.838
aF0.838
aF0.838
aF0.838
aF0.838
aF0.838
aF0.838
aF0.838
aF0.838
aF0.838
aF0.838
aF0.838
aF0.838
aF0.838
aF0.838
aF0.838
aF0.838
aF0.838
aF0.838
aF0.838
aF0.838
aF0.838
aF0.838
aF0.838
aF0.838
aF0.838
aF0.838
aF0.838
aF0.838
aF0.838
aF0.838
aF0.838
aF0.838
aF0.838
aF0.838
aF0.838
aF0.838
aF0.838
aF0.838
aF0.838
aF0.838
aF0.838
aF0.838
aF0.838
aF0.838
aF0.838
aF0.838
aF0.838
aF0.838
aF0.838
aF0.838
aF0.838
aF0.838
aF0.838
aF0.838
aF0.838
aF0.838
aF0.838
aF0.838
aF0.838
aF0.838
aF0.838
aF0.838
aF0.838
aF0.838
aF0.838
aF0.838
aF0.838
aF0.838
aF0.838
aF0.838
aF0.838
aF0.838
aF0.838
aF0.838
aF0.838
aF0.838
aF0.838
aF0.838
aF0.838
aF0.838
aF0.838
aF0.838
aF0.838
aF0.838
aF0.838
aF0.838
aF0.838
aF0.838
aF0.838
aF0.838
aF0.838
aF0.838
aF0.838
aF0.838
aF0.838
aF0.838
aF0.838
aF0.838
aF0.838
aF0.838
aF0.838
aF0.838
aF0.838
aF0.838
aF0.838
aF0.838
aF0.838
aF0.838
aF0.838
aF0.838
aF0.838
aF0.838
aF0.838
aF0.838
aF0.838
aF0.838
aF0.838
aF0.838
aF0.838
aF0.838
aF0.838
aF0.838
aF0.838
aF0.838
aF0.838
aF0.838
aF0.838
aF0.838
aF0.838
aF0.838
aF0.838
aF0.838
aF0.838
aF0.838
aF0.838
aF0.838
aF0.838
aF0.838
aF0.838
aF0.838
aF0.838
aF0.838
aF0.838
aF0.838
aF0.838
aF0.838
aF0.838
aF0.838
aF0.838
aF0.838
aF0.838
aF0.838
aF0.838
aF0.838
aF0.838
aF0.838
aF0.838
aF0.838
aF0.838
aF0.838
aF0.838
aF0.838
aF0.838
aF0.838
aF0.838
aF0.838
aF0.838
aF0.838
aF0.838
aF0.838
aF0.838
aF0.838
aF0.838
aF0.838
aF0.838
aF0.838
aF0.838
aF0.838
aF0.838
aF0.838
aF0.838
aF0.838
aF0.838
aF0.838
aF0.838
aF0.838
aF0.838
aF0.838
aF0.838
aF0.838
aF0.838
aF0.838
aF0.838
aF0.838
aF0.838
aF0.838
aF0.838
aF0.838
aF0.838
aF0.838
aF0.838
aF0.838
aF0.838
aF0.838
aF0.838
aF0.838
aF0.838
aF0.838
aF0.838
aF0.838
aF0.838
aF0.838
aF0.838
aF0.838
aF0.838
aF0.838
aF0.838
aF0.838
aF0.838
aF0.838
aF0.838
aF0.838
aF0.838
aF0.838
aF0.838
aF0.838
aF0.838
aF0.838
aF0.838
aF0.838
aF0.838
aF0.838
aF0.838
aF0.838
aF0.838
aF0.838
aF0.838
aF0.838
aF0.838
aF0.838
aF0.838
aF0.838
aF0.838
aF0.838
aF0.838
aF0.838
aF0.838
aF0.838
aF0.838
aF0.838
aF0.838
aF0.838
aF0.838
aF0.838
aF0.838
aF0.838
aF0.838
aF0.838
aF0.838
aF0.838
aF0.838
aF0.838
aF0.838
aF0.838
aF0.838
aF0.838
aF0.838
aF0.838
aF0.838
aF0.838
aF0.838
aF0.838
aF0.838
aF0.838
aF0.838
aF0.838
aF0.838
aF0.838
aF0.838
aF0.838
aF0.838
aF0.838
aF0.838
aF0.838
aF0.838
aF0.838
aF0.838
aF0.838
aF0.838
aF0.838
aF0.838
aF0.838
aF0.838
aF0.838
aF0.838
aF0.838
aF0.838
aF0.838
aF0.838
aF0.838
aF0.838
aF0.838
aF0.838
aF0.838
aF0.838
aF0.838
aF0.838
aF0.838
aF0.838
aF0.838
aF0.838
aF0.838
aF0.838
aF0.838
aF0.838
aF0.838
aF0.838
aF0.838
aF0.838
aF0.838
aF0.838
aF0.838
aF0.838
aF0.838
aF0.838
aF0.838
aF0.838
aF0.838
aF0.838
aF0.838
aF0.838
aF0.838
aF0.838
aF0.838
aF0.838
aF0.838
aF0.838
aF0.838
aF0.838
aF0.838
aF0.838
aF0.838
aF0.838
aF0.838
aF0.838
aF0.838
aF0.838
aF0.838
aF0.838
aF0.838
aF0.838
aF0.838
aF0.838
aF0.838
aF0.838
aF0.838
aF0.838
aF0.838
aF0.838
aF0.838
aF0.838
aF0.838
aF0.838
aF0.838
aF0.838
aF0.838
aF0.838
aF0.838
aF0.838
aF0.838
aF0.838
aF0.838
aF0.838
aF0.838
aF0.838
aF0.838
aF0.838
aF0.838
aF0.838
aF0.838
aF0.838
aF0.838
aF0.838
aF0.838
aF0.838
aF0.838
aF0.838
aF0.838
aF0.838
aF0.838
aF0.838
aF0.838
aF0.838
aF0.838
aF0.838
aF0.838
aF0.838
aF0.838
aF0.838
aF0.838
aF0.838
aF0.838
aF0.838
aF0.838
aF0.838
aF0.838
aF0.838
aF0.838
aF0.838
aF0.838
aF0.838
aF0.838
aF0.838
aF0.838
aF0.838
aF0.838
aF0.838
aF0.838
aF0.838
aF0.838
aF0.838
aF0.838
aF0.838
aF0.838
aF0.838
aF0.838
aF0.838
aF0.838
aF0.838
aF0.838
aF0.838
aF0.838
aF0.838
aF0.838
aF0.838
aF0.838
aF0.838
aF0.838
aF0.838
aF0.838
aF0.838
aF0.838
aF0.838
aF0.838
aF0.838
aF0.838
aF0.838
aF0.838
aF0.838
aF0.838
aF0.838
aF0.838
aF0.838
aF0.838
aF0.838
aF0.838
aF0.838
aF0.838
aF0.838
aF0.838
aF0.838
aF0.838
aF0.838
aF0.838
aF0.838
aF0.838
aF0.838
aF0.838
aF0.838
aF0.838
aF0.838
aF0.838
aF0.838
aF0.838
aF0.838
aF0.838
aF0.838
aF0.838
aF0.838
aF0.838
aF0.838
aF0.838
aF0.838
aF0.838
aF0.838
aF0.838
aF0.838
aF0.838
aF0.838
aF0.838
aF0.838
aF0.838
aF0.838
aF0.838
aF0.838
aF0.838
aF0.838
aF0.838
aF0.838
aF0.838
aF0.838
aF0.838
aF0.838
aF0.838
aF0.838
aF0.838
aF0.838
aF0.838
aF0.838
aF0.838
aF0.838
aF0.838
aF0.838
aF0.838
aF0.838
aF0.838
aF0.838
aF0.838
aF0.838
aF0.838
aF0.838
aF0.838
aF0.838
aF0.838
aF0.838
aF0.838
aF0.838
aF0.838
aF0.838
aF0.838
aF0.838
aF0.838
aF0.838
aF0.838
aF0.838
aF0.838
aF0.838
aF0.838
aF0.838
aF0.838
aF0.838
aF0.838
aF0.838
aF0.838
aF0.838
aF0.838
aF0.838
aF0.838
aF0.838
aF0.838
aF0.838
aF0.838
aF0.838
aF0.838
aF0.838
aF0.838
aF0.838
aF0.838
aF0.838
aF0.838
aF0.838
aF0.838
aF0.838
aF0.838
aF0.838
aF0.838
aF0.838
aF0.838
aF0.838
aF0.838
aF0.838
aF0.838
aF0.838
aF0.838
aF0.838
aF0.838
aF0.838
aF0.838
aF0.838
aF0.838
aF0.838
aF0.838
aF0.838
aF0.838
aF0.838
aF0.838
aF0.838
aF0.838
aF0.838
aF0.838
aF0.838
aF0.838
aF0.838
aF0.838
aF0.838
aF0.838
aF0.838
aF0.838
aF0.838
aF0.838
aF0.838
aF0.838
aF0.838
aF0.838
aF0.838
aF0.838
aF0.838
aF0.838
aF0.838
aF0.838
aF0.838
aF0.838
aF0.838
aF0.838
aF0.838
aF0.838
aF0.838
aF0.838
aF0.838
aF0.838
aF0.838
aF0.838
aF0.838
aF0.838
aF0.838
aF0.838
aF0.838
aF0.838
aF0.838
aF0.838
aF0.838
aF0.838
aF0.838
aF0.838
aF0.838
aF0.838
aF0.838
aF0.838
aF0.838
aF0.838
aF0.838
aF0.838
aF0.838
aF0.838
aF0.838
aF0.838
aF0.838
aF0.838
aF0.838
aF0.838
aF0.838
aF0.838
aF0.838
aF0.838
aF0.838
aF0.838
aF0.838
aF0.838
aF0.838
aF0.838
aF0.838
aF0.838
aF0.838
aF0.838
aF0.838
aF0.838
aF0.838
aF0.838
aF0.838
aF0.838
aF0.838
aF0.838
aF0.838
aF0.838
aF0.838
aF0.838
aF0.838
aF0.838
aF0.838
aF0.838
aF0.838
aF0.838
aF0.838
aF0.838
aF0.838
aF0.838
aF0.838
aF0.838
aF0.838
aF0.838
aF0.838
aF0.838
aF0.838
aF0.838
aF0.838
aF0.838
aF0.838
aF0.838
aF0.838
aF0.838
aF0.838
aF0.838
aF0.838
aF0.838
aF0.838
aF0.838
aF0.838
aF0.838
aF0.838
aF0.838
aF0.838
aF0.838
aF0.838
aF0.838
aF0.838
aF0.838
aF0.838
aF0.838
aF0.838
aF0.838
aF0.838
aF0.838
aF0.838
aF0.838
aF0.838
aF0.838
aF0.838
aF0.838
aF0.838
aF0.838
aF0.838
aF0.838
aF0.838
aF0.838
aF0.838
aF0.838
aF0.838
aF0.838
aF0.838
aF0.838
aF0.838
aF0.838
aF0.838
aF0.838
aF0.838
aF0.838
aF0.838
aF0.838
aF0.838
aF0.838
aF0.838
aF0.838
aF0.838
aF0.838
aF0.838
aF0.838
aF0.838
aF0.838
aF0.838
aF0.838
aF0.838
aF0.838
aF0.838
aF0.838
aF0.838
aF0.838
aF0.838
aF0.838
aF0.838
aF0.838
aF0.838
aF0.838
aF0.838
aF0.838
aF0.838
aF0.838
aF0.838
aF0.838
aF0.838
aF0.838
aF0.838
aF0.838
aF0.838
aF0.838
aF0.838
aF0.838
aF0.838
aF0.838
aF0.838
aF0.838
aF0.838
aF0.838
aF0.838
aF0.838
aF0.838
aF0.838
aF0.838
aF0.838
aF0.838
aF0.838
aF0.838
aF0.838
aF0.838
aF0.838
aF0.838
aF0.838
aF0.838
aF0.838
aF0.838
aF0.838
aF0.838
aF0.838
aF0.838
aF0.838
aF0.838
aF0.838
aF0.838
aF0.838
aF0.838
aF0.838
aF0.838
aF0.838
aF0.838
aF0.838
aF0.838
aF0.838
aF0.838
aF0.838
aF0.838
aF0.838
aF0.838
aF0.838
aF0.838
aF0.838
aF0.838
aF0.838
aF0.838
aF0.838
aF0.838
aF0.838
aF0.838
aF0.838
aF0.838
aF0.838
aF0.838
aF0.838
aF0.838
aF0.838
aF0.838
aF0.838
aF0.838
aF0.838
aF0.838
aF0.838
aF0.838
aF0.838
aF0.838
aF0.838
aF0.838
aF0.838
aF0.838
aF0.838
aF0.838
aF0.838
aF0.838
aF0.838
aF0.838
aF0.838
aF0.838
aF0.838
aF0.838
aF0.838
aF0.838
aF0.838
aF0.838
aF0.838
aF0.838
aF0.838
aF0.838
aF0.838
aF0.838
aF0.838
asF0.2
(lp4
F0.402
aF0.402
aF0.402
aF0.402
aF0.838
aF0.838
aF0.838
aF0.838
aF0.838
aF0.838
aF0.838
aF0.838
aF0.838
aF0.838
aF0.838
aF0.838
aF0.838
aF0.838
aF0.838
aF0.838
aF0.838
aF0.838
aF0.838
aF0.838
aF0.838
aF0.838
aF0.838
aF0.838
aF0.838
aF0.838
aF0.838
aF0.838
aF0.838
aF0.838
aF0.838
aF0.838
aF0.838
aF0.838
aF0.838
aF0.838
aF0.838
aF0.838
aF0.838
aF0.838
aF0.838
aF0.838
aF0.838
aF0.838
aF0.838
aF0.838
aF0.838
aF0.838
aF0.838
aF0.838
aF0.838
aF0.838
aF0.838
aF0.838
aF0.838
aF0.838
aF0.838
aF0.838
aF0.838
aF0.838
aF0.838
aF0.838
aF0.838
aF0.838
aF0.838
aF0.838
aF0.838
aF0.838
aF0.838
aF0.838
aF0.838
aF0.838
aF0.838
aF0.838
aF0.838
aF0.838
aF0.838
aF0.838
aF0.838
aF0.838
aF0.838
aF0.838
aF0.838
aF0.838
aF0.838
aF0.838
aF0.838
aF0.838
aF0.838
aF0.838
aF0.838
aF0.838
aF0.838
aF0.838
aF0.838
aF0.838
aF0.838
aF0.838
aF0.838
aF0.838
aF0.838
aF0.838
aF0.838
aF0.838
aF0.838
aF0.838
aF0.838
aF0.838
aF0.838
aF0.838
aF0.838
aF0.838
aF0.838
aF0.838
aF0.838
aF0.838
aF0.838
aF0.838
aF0.838
aF0.838
aF0.838
aF0.838
aF0.838
aF0.838
aF0.838
aF0.838
aF0.838
aF0.838
aF0.838
aF0.838
aF0.838
aF0.838
aF0.838
aF0.838
aF0.838
aF0.838
aF0.838
aF0.838
aF0.838
aF0.838
aF0.838
aF0.838
aF0.838
aF0.838
aF0.838
aF0.838
aF0.838
aF0.838
aF0.838
aF0.838
aF0.838
aF0.838
aF0.838
aF0.838
aF0.838
aF0.838
aF0.838
aF0.838
aF0.838
aF0.838
aF0.838
aF0.838
aF0.838
aF0.838
aF0.838
aF0.838
aF0.838
aF0.838
aF0.838
aF0.838
aF0.838
aF0.838
aF0.838
aF0.838
aF0.838
aF0.838
aF0.838
aF0.838
aF0.838
aF0.838
aF0.838
aF0.838
aF0.838
aF0.838
aF0.838
aF0.838
aF0.838
aF0.838
aF0.838
aF0.838
aF0.838
aF0.838
aF0.838
aF0.838
aF0.838
aF0.838
aF0.838
aF0.838
aF0.838
aF0.838
aF0.838
aF0.838
aF0.838
aF0.838
aF0.838
aF0.838
aF0.838
aF0.838
aF0.838
aF0.838
aF0.838
aF0.838
aF0.838
aF0.838
aF0.838
aF0.838
aF0.838
aF0.838
aF0.838
aF0.838
aF0.838
aF0.838
aF0.838
aF0.838
aF0.838
aF0.838
aF0.838
aF0.838
aF0.838
aF0.838
aF0.838
aF0.838
aF0.838
aF0.838
aF0.838
aF0.838
aF0.838
aF0.838
aF0.838
aF0.838
aF0.838
aF0.838
aF0.838
aF0.838
aF0.838
aF0.838
aF0.838
aF0.838
aF0.838
aF0.838
aF0.838
aF0.838
aF0.838
aF0.838
aF0.838
aF0.838
aF0.838
aF0.838
aF0.838
aF0.838
aF0.838
aF0.838
aF0.838
aF0.838
aF0.838
aF0.838
aF0.838
aF0.838
aF0.838
aF0.838
aF0.838
aF0.838
aF0.838
aF0.838
aF0.838
aF0.838
aF0.838
aF0.838
aF0.838
aF0.838
aF0.838
aF0.838
aF0.838
aF0.838
aF0.838
aF0.838
aF0.838
aF0.838
aF0.838
aF0.838
aF0.838
aF0.838
aF0.838
aF0.838
aF0.838
aF0.838
aF0.838
aF0.838
aF0.838
aF0.838
aF0.838
aF0.838
aF0.838
aF0.838
aF0.838
aF0.838
aF0.838
aF0.838
aF0.838
aF0.838
aF0.838
aF0.838
aF0.838
aF0.838
aF0.838
aF0.838
aF0.838
aF0.838
aF0.838
aF0.838
aF0.838
aF0.838
aF0.838
aF0.838
aF0.838
aF0.838
aF0.838
aF0.838
aF0.838
aF0.838
aF0.838
aF0.838
aF0.838
aF0.838
aF0.838
aF0.838
aF0.838
aF0.838
aF0.838
aF0.838
aF0.838
aF0.838
aF0.838
aF0.838
aF0.838
aF0.838
aF0.838
aF0.838
aF0.838
aF0.838
aF0.838
aF0.838
aF0.838
aF0.838
aF0.838
aF0.838
aF0.838
aF0.838
aF0.838
aF0.838
aF0.838
aF0.838
aF0.838
aF0.838
aF0.838
aF0.838
aF0.838
aF0.838
aF0.838
aF0.838
aF0.838
aF0.838
aF0.838
aF0.838
aF0.838
aF0.838
aF0.838
aF0.838
aF0.838
aF0.838
aF0.838
aF0.838
aF0.838
aF0.838
aF0.838
aF0.838
aF0.838
aF0.838
aF0.838
aF0.838
aF0.838
aF0.838
aF0.838
aF0.838
aF0.838
aF0.838
aF0.838
aF0.838
aF0.838
aF0.838
aF0.838
aF0.838
aF0.838
aF0.838
aF0.838
aF0.838
aF0.838
aF0.838
aF0.838
aF0.838
aF0.838
aF0.838
aF0.838
aF0.838
aF0.838
aF0.838
aF0.838
aF0.838
aF0.838
aF0.838
aF0.838
aF0.838
aF0.838
aF0.838
aF0.838
aF0.838
aF0.838
aF0.838
aF0.838
aF0.838
aF0.838
aF0.838
aF0.838
aF0.838
aF0.838
aF0.838
aF0.838
aF0.838
aF0.838
aF0.838
aF0.838
aF0.838
aF0.838
aF0.838
aF0.838
aF0.838
aF0.838
aF0.838
aF0.838
aF0.838
aF0.838
aF0.838
aF0.838
aF0.838
aF0.838
aF0.838
aF0.838
aF0.838
aF0.838
aF0.838
aF0.838
aF0.838
aF0.838
aF0.838
aF0.838
aF0.838
aF0.838
aF0.838
aF0.838
aF0.838
aF0.838
aF0.838
aF0.838
aF0.838
aF0.838
aF0.838
aF0.838
aF0.838
aF0.838
aF0.838
aF0.838
aF0.838
aF0.838
aF0.838
aF0.838
aF0.838
aF0.838
aF0.838
aF0.838
aF0.838
aF0.838
aF0.838
aF0.838
aF0.838
aF0.838
aF0.838
aF0.838
aF0.838
aF0.838
aF0.838
aF0.838
aF0.838
aF0.838
aF0.838
aF0.838
aF0.838
aF0.838
aF0.838
aF0.838
aF0.838
aF0.838
aF0.838
aF0.838
aF0.838
aF0.838
aF0.838
aF0.838
aF0.838
aF0.838
aF0.838
aF0.838
aF0.838
aF0.838
aF0.838
aF0.838
aF0.838
aF0.838
aF0.838
aF0.838
aF0.838
aF0.838
aF0.838
aF0.838
aF0.838
aF0.838
aF0.838
aF0.838
aF0.838
aF0.838
aF0.838
aF0.838
aF0.838
aF0.838
aF0.838
aF0.838
aF0.838
aF0.838
aF0.838
aF0.838
aF0.838
aF0.838
aF0.838
aF0.838
aF0.838
aF0.838
aF0.838
aF0.838
aF0.838
aF0.838
aF0.838
aF0.838
aF0.838
aF0.838
aF0.838
aF0.838
aF0.838
aF0.838
aF0.838
aF0.838
aF0.838
aF0.838
aF0.838
aF0.838
aF0.838
aF0.838
aF0.838
aF0.838
aF0.838
aF0.838
aF0.838
aF0.838
aF0.838
aF0.838
aF0.838
aF0.838
aF0.838
aF0.838
aF0.838
aF0.838
aF0.838
aF0.838
aF0.838
aF0.838
aF0.838
aF0.838
aF0.838
aF0.838
aF0.838
aF0.838
aF0.838
aF0.838
aF0.838
aF0.838
aF0.838
aF0.838
aF0.838
aF0.838
aF0.838
aF0.838
aF0.838
aF0.838
aF0.838
aF0.838
aF0.838
aF0.838
aF0.838
aF0.838
aF0.838
aF0.838
aF0.838
aF0.838
aF0.838
aF0.838
aF0.838
aF0.838
aF0.838
aF0.838
aF0.838
aF0.838
aF0.838
aF0.838
aF0.838
aF0.838
aF0.838
aF0.838
aF0.838
aF0.838
aF0.838
aF0.838
aF0.838
aF0.838
aF0.838
aF0.838
aF0.838
aF0.838
aF0.838
aF0.838
aF0.838
aF0.838
aF0.838
aF0.838
aF0.838
aF0.838
aF0.838
aF0.838
aF0.838
aF0.838
aF0.838
aF0.838
aF0.838
aF0.838
aF0.838
aF0.838
aF0.838
aF0.838
aF0.838
aF0.838
aF0.838
aF0.838
aF0.838
aF0.838
aF0.838
aF0.838
aF0.838
aF0.838
aF0.838
aF0.838
aF0.838
aF0.838
aF0.838
aF0.838
aF0.838
aF0.838
aF0.838
aF0.838
aF0.838
aF0.838
aF0.838
aF0.838
aF0.838
aF0.838
aF0.838
aF0.838
aF0.838
aF0.838
aF0.838
aF0.838
aF0.838
aF0.838
aF0.838
aF0.838
aF0.838
aF0.838
aF0.838
aF0.838
aF0.838
aF0.838
aF0.838
aF0.838
aF0.838
aF0.838
aF0.838
aF0.838
aF0.838
aF0.838
aF0.838
aF0.838
aF0.838
aF0.838
aF0.838
aF0.838
aF0.838
aF0.838
aF0.838
aF0.838
aF0.838
aF0.838
aF0.838
aF0.838
aF0.838
aF0.838
aF0.838
aF0.838
aF0.838
aF0.838
aF0.838
aF0.838
aF0.838
aF0.838
aF0.838
aF0.838
aF0.838
aF0.838
aF0.838
aF0.838
aF0.838
aF0.838
aF0.838
aF0.838
aF0.838
aF0.838
aF0.838
aF0.838
aF0.838
aF0.838
aF0.838
aF0.838
aF0.838
aF0.838
aF0.838
aF0.838
aF0.838
aF0.838
aF0.838
aF0.838
aF0.838
aF0.838
aF0.838
aF0.838
aF0.838
aF0.838
aF0.838
aF0.838
aF0.838
aF0.838
aF0.838
aF0.838
aF0.838
aF0.838
aF0.838
aF0.838
aF0.838
aF0.838
aF0.838
aF0.838
aF0.838
aF0.838
aF0.838
aF0.838
aF0.838
aF0.838
aF0.838
aF0.838
aF0.838
aF0.838
aF0.838
aF0.838
aF0.838
aF0.838
aF0.838
aF0.838
aF0.838
aF0.838
aF0.838
aF0.838
aF0.838
aF0.838
aF0.838
aF0.838
aF0.838
aF0.838
aF0.838
aF0.838
aF0.838
aF0.838
aF0.838
aF0.838
aF0.838
aF0.838
aF0.838
aF0.838
aF0.838
aF0.838
aF0.838
aF0.838
aF0.838
aF0.838
aF0.838
aF0.838
aF0.838
aF0.838
aF0.838
aF0.838
aF0.838
aF0.838
aF0.838
aF0.838
aF0.838
aF0.838
aF0.838
aF0.838
aF0.838
aF0.838
aF0.838
aF0.838
aF0.838
aF0.838
aF0.838
aF0.838
aF0.838
aF0.838
aF0.838
aF0.838
aF0.838
aF0.838
aF0.838
aF0.838
aF0.838
aF0.838
aF0.838
aF0.838
aF0.838
aF0.838
aF0.838
aF0.838
aF0.838
aF0.838
aF0.838
aF0.838
aF0.838
aF0.838
aF0.838
aF0.838
aF0.838
aF0.838
aF0.838
aF0.838
aF0.838
aF0.838
aF0.838
aF0.838
aF0.838
aF0.838
aF0.838
aF0.838
aF0.838
aF0.838
aF0.838
aF0.838
aF0.838
aF0.838
aF0.838
aF0.838
aF0.838
aF0.838
aF0.838
aF0.838
aF0.838
aF0.838
aF0.838
aF0.838
aF0.838
aF0.838
aF0.838
aF0.838
aF0.838
aF0.838
aF0.838
aF0.838
aF0.838
aF0.838
aF0.838
aF0.838
aF0.838
aF0.838
aF0.838
aF0.838
aF0.838
aF0.838
aF0.838
aF0.838
aF0.838
aF0.838
aF0.838
aF0.838
aF0.838
aF0.838
aF0.838
aF0.838
aF0.838
aF0.838
aF0.838
aF0.838
aF0.838
aF0.838
aF0.838
aF0.838
aF0.838
aF0.838
aF0.838
aF0.838
aF0.838
aF0.838
aF0.838
aF0.838
aF0.838
aF0.838
aF0.838
aF0.838
aF0.838
aF0.838
aF0.838
aF0.838
aF0.838
aF0.838
aF0.838
aF0.838
aF0.838
aF0.838
aF0.838
aF0.838
aF0.838
aF0.838
aF0.838
aF0.838
aF0.838
aF0.838
aF0.838
aF0.838
aF0.838
aF0.838
aF0.838
aF0.838
aF0.838
aF0.838
aF0.838
aF0.838
aF0.838
aF0.838
aF0.838
aF0.838
aF0.838
aF0.838
aF0.838
aF0.838
aF0.838
aF0.838
aF0.838
aF0.838
aF0.838
aF0.838
aF0.838
aF0.838
aF0.838
aF0.838
aF0.838
asF0.05
(lp5
F0.402
aF0.402
aF0.402
aF0.402
aF0.838
aF0.838
aF0.838
aF0.838
aF0.838
aF0.838
aF0.838
aF0.838
aF0.838
aF0.838
aF0.838
aF0.838
aF0.838
aF0.838
aF0.838
aF0.838
aF0.838
aF0.838
aF0.838
aF0.838
aF0.838
aF0.838
aF0.838
aF0.838
aF0.838
aF0.838
aF0.838
aF0.838
aF0.838
aF0.838
aF0.838
aF0.838
aF0.838
aF0.838
aF0.838
aF0.838
aF0.838
aF0.838
aF0.838
aF0.838
aF0.838
aF0.838
aF0.838
aF0.838
aF0.838
aF0.838
aF0.838
aF0.838
aF0.838
aF0.838
aF0.838
aF0.838
aF0.838
aF0.838
aF0.838
aF0.838
aF0.838
aF0.838
aF0.838
aF0.838
aF0.838
aF0.838
aF0.838
aF0.838
aF0.838
aF0.838
aF0.838
aF0.838
aF0.838
aF0.838
aF0.838
aF0.838
aF0.838
aF0.838
aF0.838
aF0.838
aF0.838
aF0.838
aF0.838
aF0.838
aF0.838
aF0.838
aF0.838
aF0.838
aF0.838
aF0.838
aF0.838
aF0.838
aF0.838
aF0.838
aF0.838
aF0.838
aF0.838
aF0.838
aF0.838
aF0.838
aF0.838
aF0.838
aF0.838
aF0.838
aF0.838
aF0.838
aF0.838
aF0.838
aF0.838
aF0.838
aF0.838
aF0.838
aF0.838
aF0.838
aF0.838
aF0.838
aF0.838
aF0.838
aF0.838
aF0.838
aF0.838
aF0.838
aF0.838
aF0.838
aF0.838
aF0.838
aF0.838
aF0.838
aF0.838
aF0.838
aF0.838
aF0.838
aF0.838
aF0.838
aF0.838
aF0.838
aF0.838
aF0.838
aF0.838
aF0.838
aF0.838
aF0.838
aF0.838
aF0.838
aF0.838
aF0.838
aF0.838
aF0.838
aF0.838
aF0.838
aF0.838
aF0.838
aF0.838
aF0.838
aF0.838
aF0.838
aF0.838
aF0.838
aF0.838
aF0.838
aF0.838
aF0.838
aF0.838
aF0.838
aF0.838
aF0.838
aF0.838
aF0.838
aF0.838
aF0.838
aF0.838
aF0.838
aF0.838
aF0.838
aF0.838
aF0.838
aF0.838
aF0.838
aF0.838
aF0.838
aF0.838
aF0.838
aF0.838
aF0.838
aF0.838
aF0.838
aF0.838
aF0.838
aF0.838
aF0.838
aF0.838
aF0.838
aF0.838
aF0.838
aF0.838
aF0.838
aF0.838
aF0.838
aF0.838
aF0.838
aF0.838
aF0.838
aF0.838
aF0.838
aF0.838
aF0.838
aF0.838
aF0.838
aF0.838
aF0.838
aF0.838
aF0.838
aF0.838
aF0.838
aF0.838
aF0.838
aF0.838
aF0.838
aF0.838
aF0.838
aF0.838
aF0.838
aF0.838
aF0.838
aF0.838
aF0.838
aF0.838
aF0.838
aF0.838
aF0.838
aF0.838
aF0.838
aF0.838
aF0.838
aF0.838
aF0.838
aF0.838
aF0.838
aF0.838
aF0.838
aF0.838
aF0.838
aF0.838
aF0.838
aF0.838
aF0.838
aF0.838
aF0.838
aF0.838
aF0.838
aF0.838
aF0.838
aF0.838
aF0.838
aF0.838
aF0.838
aF0.838
aF0.838
aF0.838
aF0.838
aF0.838
aF0.838
aF0.838
aF0.838
aF0.838
aF0.838
aF0.838
aF0.838
aF0.838
aF0.838
aF0.838
aF0.838
aF0.838
aF0.838
aF0.838
aF0.838
aF0.838
aF0.838
aF0.838
aF0.838
aF0.838
aF0.838
aF0.838
aF0.838
aF0.838
aF0.838
aF0.838
aF0.838
aF0.838
aF0.838
aF0.838
aF0.838
aF0.838
aF0.838
aF0.838
aF0.838
aF0.838
aF0.838
aF0.838
aF0.838
aF0.838
aF0.838
aF0.838
aF0.838
aF0.838
aF0.838
aF0.838
aF0.838
aF0.838
aF0.838
aF0.838
aF0.838
aF0.838
aF0.838
aF0.838
aF0.838
aF0.838
aF0.838
aF0.838
aF0.838
aF0.838
aF0.838
aF0.838
aF0.838
aF0.838
aF0.838
aF0.838
aF0.838
aF0.838
aF0.838
aF0.838
aF0.838
aF0.838
aF0.838
aF0.838
aF0.838
aF0.838
aF0.838
aF0.838
aF0.838
aF0.838
aF0.838
aF0.838
aF0.838
aF0.838
aF0.838
aF0.838
aF0.838
aF0.838
aF0.838
aF0.838
aF0.838
aF0.838
aF0.838
aF0.838
aF0.838
aF0.838
aF0.838
aF0.838
aF0.838
aF0.838
aF0.838
aF0.838
aF0.838
aF0.838
aF0.838
aF0.838
aF0.838
aF0.838
aF0.838
aF0.838
aF0.838
aF0.838
aF0.838
aF0.838
aF0.838
aF0.838
aF0.838
aF0.838
aF0.838
aF0.838
aF0.838
aF0.838
aF0.838
aF0.838
aF0.838
aF0.838
aF0.838
aF0.838
aF0.838
aF0.838
aF0.838
aF0.838
aF0.838
aF0.838
aF0.838
aF0.838
aF0.838
aF0.838
aF0.838
aF0.838
aF0.838
aF0.838
aF0.838
aF0.838
aF0.838
aF0.838
aF0.838
aF0.838
aF0.838
aF0.838
aF0.838
aF0.838
aF0.838
aF0.838
aF0.838
aF0.838
aF0.838
aF0.838
aF0.838
aF0.838
aF0.838
aF0.838
aF0.838
aF0.838
aF0.838
aF0.838
aF0.838
aF0.838
aF0.838
aF0.838
aF0.838
aF0.838
aF0.838
aF0.838
aF0.838
aF0.838
aF0.838
aF0.838
aF0.838
aF0.838
aF0.838
aF0.838
aF0.838
aF0.838
aF0.838
aF0.838
aF0.838
aF0.838
aF0.838
aF0.838
aF0.838
aF0.838
aF0.838
aF0.838
aF0.838
aF0.838
aF0.838
aF0.838
aF0.838
aF0.838
aF0.838
aF0.838
aF0.838
aF0.838
aF0.838
aF0.838
aF0.838
aF0.838
aF0.838
aF0.838
aF0.838
aF0.838
aF0.838
aF0.838
aF0.838
aF0.838
aF0.838
aF0.838
aF0.838
aF0.838
aF0.838
aF0.838
aF0.838
aF0.838
aF0.838
aF0.838
aF0.838
aF0.838
aF0.838
aF0.838
aF0.838
aF0.838
aF0.838
aF0.838
aF0.838
aF0.838
aF0.838
aF0.838
aF0.838
aF0.838
aF0.838
aF0.838
aF0.838
aF0.838
aF0.838
aF0.838
aF0.838
aF0.838
aF0.838
aF0.838
aF0.838
aF0.838
aF0.838
aF0.838
aF0.838
aF0.838
aF0.838
aF0.838
aF0.838
aF0.838
aF0.838
aF0.838
aF0.838
aF0.838
aF0.838
aF0.838
aF0.838
aF0.838
aF0.838
aF0.838
aF0.838
aF0.838
aF0.838
aF0.838
aF0.838
aF0.838
aF0.838
aF0.838
aF0.838
aF0.838
aF0.838
aF0.838
aF0.838
aF0.838
aF0.838
aF0.838
aF0.838
aF0.838
aF0.838
aF0.838
aF0.838
aF0.838
aF0.838
aF0.838
aF0.838
aF0.838
aF0.838
aF0.838
aF0.838
aF0.838
aF0.838
aF0.838
aF0.838
aF0.838
aF0.838
aF0.838
aF0.838
aF0.838
aF0.838
aF0.838
aF0.838
aF0.838
aF0.838
aF0.838
aF0.838
aF0.838
aF0.838
aF0.838
aF0.838
aF0.838
aF0.838
aF0.838
aF0.838
aF0.838
aF0.838
aF0.838
aF0.838
aF0.838
aF0.838
aF0.838
aF0.838
aF0.838
aF0.838
aF0.838
aF0.838
aF0.838
aF0.838
aF0.838
aF0.838
aF0.838
aF0.838
aF0.838
aF0.838
aF0.838
aF0.838
aF0.838
aF0.838
aF0.838
aF0.838
aF0.838
aF0.838
aF0.838
aF0.838
aF0.838
aF0.838
aF0.838
aF0.838
aF0.838
aF0.838
aF0.838
aF0.838
aF0.838
aF0.838
aF0.838
aF0.838
aF0.838
aF0.838
aF0.838
aF0.838
aF0.838
aF0.838
aF0.838
aF0.838
aF0.838
aF0.838
aF0.838
aF0.838
aF0.838
aF0.838
aF0.838
aF0.838
aF0.838
aF0.838
aF0.838
aF0.838
aF0.838
aF0.838
aF0.838
aF0.838
aF0.838
aF0.838
aF0.838
aF0.838
aF0.838
aF0.838
aF0.838
aF0.838
aF0.838
aF0.838
aF0.838
aF0.838
aF0.838
aF0.838
aF0.838
aF0.838
aF0.838
aF0.838
aF0.838
aF0.838
aF0.838
aF0.838
aF0.838
aF0.838
aF0.838
aF0.838
aF0.838
aF0.838
aF0.838
aF0.838
aF0.838
aF0.838
aF0.838
aF0.838
aF0.838
aF0.838
aF0.838
aF0.838
aF0.838
aF0.838
aF0.838
aF0.838
aF0.838
aF0.838
aF0.838
aF0.838
aF0.838
aF0.838
aF0.838
aF0.838
aF0.838
aF0.838
aF0.838
aF0.838
aF0.838
aF0.838
aF0.838
aF0.838
aF0.838
aF0.838
aF0.838
aF0.838
aF0.838
aF0.838
aF0.838
aF0.838
aF0.838
aF0.838
aF0.838
aF0.838
aF0.838
aF0.838
aF0.838
aF0.838
aF0.838
aF0.838
aF0.838
aF0.838
aF0.838
aF0.838
aF0.838
aF0.838
aF0.838
aF0.838
aF0.838
aF0.838
aF0.838
aF0.838
aF0.838
aF0.838
aF0.838
aF0.838
aF0.838
aF0.838
aF0.838
aF0.838
aF0.838
aF0.838
aF0.838
aF0.838
aF0.838
aF0.838
aF0.838
aF0.838
aF0.838
aF0.838
aF0.838
aF0.838
aF0.838
aF0.838
aF0.838
aF0.838
aF0.838
aF0.838
aF0.838
aF0.838
aF0.838
aF0.838
aF0.838
aF0.838
aF0.838
aF0.838
aF0.838
aF0.838
aF0.838
aF0.838
aF0.838
aF0.838
aF0.838
aF0.838
aF0.838
aF0.838
aF0.838
aF0.838
aF0.838
aF0.838
aF0.838
aF0.838
aF0.838
aF0.838
aF0.838
aF0.838
aF0.838
aF0.838
aF0.838
aF0.838
aF0.838
aF0.838
aF0.838
aF0.838
aF0.838
aF0.838
aF0.838
aF0.838
aF0.838
aF0.838
aF0.838
aF0.838
aF0.838
aF0.838
aF0.838
aF0.838
aF0.838
aF0.838
aF0.838
aF0.838
aF0.838
aF0.838
aF0.838
aF0.838
aF0.838
aF0.838
aF0.838
aF0.838
aF0.838
aF0.838
aF0.838
aF0.838
aF0.838
aF0.838
aF0.838
aF0.838
aF0.838
aF0.838
aF0.838
aF0.838
aF0.838
aF0.838
aF0.838
aF0.838
aF0.838
aF0.838
aF0.838
aF0.838
aF0.838
aF0.838
aF0.838
aF0.838
aF0.838
aF0.838
aF0.838
aF0.838
aF0.838
aF0.838
aF0.838
aF0.838
aF0.838
aF0.838
aF0.838
aF0.838
aF0.838
aF0.838
aF0.838
aF0.838
aF0.838
aF0.838
aF0.838
aF0.838
aF0.838
aF0.838
aF0.838
aF0.838
aF0.838
aF0.838
aF0.838
aF0.838
aF0.838
aF0.838
aF0.838
aF0.838
aF0.838
aF0.838
aF0.838
aF0.838
aF0.838
aF0.838
aF0.838
aF0.838
aF0.838
aF0.838
aF0.838
aF0.838
aF0.838
aF0.838
aF0.838
aF0.838
aF0.838
aF0.838
aF0.838
aF0.838
aF0.838
aF0.838
aF0.838
aF0.838
aF0.838
aF0.838
aF0.838
aF0.838
aF0.838
aF0.838
aF0.838
aF0.838
aF0.838
aF0.838
aF0.838
aF0.838
aF0.838
aF0.838
aF0.838
aF0.838
aF0.838
aF0.838
aF0.838
aF0.838
aF0.838
aF0.838
aF0.838
aF0.838
aF0.838
aF0.838
aF0.838
aF0.838
aF0.838
aF0.838
aF0.838
aF0.838
aF0.838
aF0.838
aF0.838
aF0.838
aF0.838
aF0.838
aF0.838
aF0.838
aF0.838
aF0.838
aF0.838
aF0.838
aF0.838
aF0.838
aF0.838
aF0.838
aF0.838
aF0.838
aF0.838
aF0.838
aF0.838
aF0.838
aF0.838
aF0.838
aF0.838
aF0.838
aF0.838
aF0.838
aF0.838
aF0.838
aF0.838
aF0.838
aF0.838
aF0.838
aF0.838
aF0.838
aF0.838
aF0.838
aF0.838
aF0.838
aF0.838
aF0.838
aF0.838
aF0.838
aF0.838
aF0.838
aF0.838
aF0.838
aF0.838
aF0.838
aF0.838
aF0.838
aF0.838
aF0.838
aF0.838
aF0.838
aF0.838
aF0.838
aF0.838
aF0.838
aF0.838
aF0.838
aF0.838
aF0.838
asF0.025
(lp6
F0.402
aF0.402
aF0.402
aF0.402
aF0.838
aF0.838
aF0.838
aF0.838
aF0.838
aF0.838
aF0.838
aF0.838
aF0.838
aF0.838
aF0.838
aF0.838
aF0.838
aF0.838
aF0.838
aF0.838
aF0.838
aF0.838
aF0.838
aF0.838
aF0.838
aF0.838
aF0.838
aF0.838
aF0.838
aF0.838
aF0.838
aF0.838
aF0.838
aF0.838
aF0.838
aF0.838
aF0.838
aF0.838
aF0.838
aF0.838
aF0.838
aF0.838
aF0.838
aF0.838
aF0.838
aF0.838
aF0.838
aF0.838
aF0.838
aF0.838
aF0.838
aF0.838
aF0.838
aF0.838
aF0.838
aF0.838
aF0.838
aF0.838
aF0.838
aF0.838
aF0.838
aF0.838
aF0.838
aF0.838
aF0.838
aF0.838
aF0.838
aF0.838
aF0.838
aF0.838
aF0.838
aF0.838
aF0.838
aF0.838
aF0.838
aF0.838
aF0.838
aF0.838
aF0.838
aF0.838
aF0.838
aF0.838
aF0.838
aF0.838
aF0.838
aF0.838
aF0.838
aF0.838
aF0.838
aF0.838
aF0.838
aF0.838
aF0.838
aF0.838
aF0.838
aF0.838
aF0.838
aF0.838
aF0.838
aF0.838
aF0.838
aF0.838
aF0.838
aF0.838
aF0.838
aF0.838
aF0.838
aF0.838
aF0.838
aF0.838
aF0.838
aF0.838
aF0.838
aF0.838
aF0.838
aF0.838
aF0.838
aF0.838
aF0.838
aF0.838
aF0.838
aF0.838
aF0.838
aF0.838
aF0.838
aF0.838
aF0.838
aF0.838
aF0.838
aF0.838
aF0.838
aF0.838
aF0.838
aF0.838
aF0.838
aF0.838
aF0.838
aF0.838
aF0.838
aF0.838
aF0.838
aF0.838
aF0.838
aF0.838
aF0.838
aF0.838
aF0.838
aF0.838
aF0.838
aF0.838
aF0.838
aF0.838
aF0.838
aF0.838
aF0.838
aF0.838
aF0.838
aF0.838
aF0.838
aF0.838
aF0.838
aF0.838
aF0.838
aF0.838
aF0.838
aF0.838
aF0.838
aF0.838
aF0.838
aF0.838
aF0.838
aF0.838
aF0.838
aF0.838
aF0.838
aF0.838
aF0.838
aF0.838
aF0.838
aF0.838
aF0.838
aF0.838
aF0.838
aF0.838
aF0.838
aF0.838
aF0.838
aF0.838
aF0.838
aF0.838
aF0.838
aF0.838
aF0.838
aF0.838
aF0.838
aF0.838
aF0.838
aF0.838
aF0.838
aF0.838
aF0.838
aF0.838
aF0.838
aF0.838
aF0.838
aF0.838
aF0.838
aF0.838
aF0.838
aF0.838
aF0.838
aF0.838
aF0.838
aF0.838
aF0.838
aF0.838
aF0.838
aF0.838
aF0.838
aF0.838
aF0.838
aF0.838
aF0.838
aF0.838
aF0.838
aF0.838
aF0.838
aF0.838
aF0.838
aF0.838
aF0.838
aF0.838
aF0.838
aF0.838
aF0.838
aF0.838
aF0.838
aF0.838
aF0.838
aF0.838
aF0.838
aF0.838
aF0.838
aF0.838
aF0.838
aF0.838
aF0.838
aF0.838
aF0.838
aF0.838
aF0.838
aF0.838
aF0.838
aF0.838
aF0.838
aF0.838
aF0.838
aF0.838
aF0.838
aF0.838
aF0.838
aF0.838
aF0.838
aF0.838
aF0.838
aF0.838
aF0.838
aF0.838
aF0.838
aF0.838
aF0.838
aF0.838
aF0.838
aF0.838
aF0.838
aF0.838
aF0.838
aF0.838
aF0.838
aF0.838
aF0.838
aF0.838
aF0.838
aF0.838
aF0.838
aF0.838
aF0.838
aF0.838
aF0.838
aF0.838
aF0.838
aF0.838
aF0.838
aF0.838
aF0.838
aF0.838
aF0.838
aF0.838
aF0.838
aF0.838
aF0.838
aF0.838
aF0.838
aF0.838
aF0.838
aF0.838
aF0.838
aF0.838
aF0.838
aF0.838
aF0.838
aF0.838
aF0.838
aF0.838
aF0.838
aF0.838
aF0.838
aF0.838
aF0.838
aF0.838
aF0.838
aF0.838
aF0.838
aF0.838
aF0.838
aF0.838
aF0.838
aF0.838
aF0.838
aF0.838
aF0.838
aF0.838
aF0.838
aF0.838
aF0.838
aF0.838
aF0.838
aF0.838
aF0.838
aF0.838
aF0.838
aF0.838
aF0.838
aF0.838
aF0.838
aF0.838
aF0.838
aF0.838
aF0.838
aF0.838
aF0.838
aF0.838
aF0.838
aF0.838
aF0.838
aF0.838
aF0.838
aF0.838
aF0.838
aF0.838
aF0.838
aF0.838
aF0.838
aF0.838
aF0.838
aF0.838
aF0.838
aF0.838
aF0.838
aF0.838
aF0.838
aF0.838
aF0.838
aF0.838
aF0.838
aF0.838
aF0.838
aF0.838
aF0.838
aF0.838
aF0.838
aF0.838
aF0.838
aF0.838
aF0.838
aF0.838
aF0.838
aF0.838
aF0.838
aF0.838
aF0.838
aF0.838
aF0.838
aF0.838
aF0.838
aF0.838
aF0.838
aF0.838
aF0.838
aF0.838
aF0.838
aF0.838
aF0.838
aF0.838
aF0.838
aF0.838
aF0.838
aF0.838
aF0.838
aF0.838
aF0.838
aF0.838
aF0.838
aF0.838
aF0.838
aF0.838
aF0.838
aF0.838
aF0.838
aF0.838
aF0.838
aF0.838
aF0.838
aF0.838
aF0.838
aF0.838
aF0.838
aF0.838
aF0.838
aF0.838
aF0.838
aF0.838
aF0.838
aF0.838
aF0.838
aF0.838
aF0.838
aF0.838
aF0.838
aF0.838
aF0.838
aF0.838
aF0.838
aF0.838
aF0.838
aF0.838
aF0.838
aF0.838
aF0.838
aF0.838
aF0.838
aF0.838
aF0.838
aF0.838
aF0.838
aF0.838
aF0.838
aF0.838
aF0.838
aF0.838
aF0.838
aF0.838
aF0.838
aF0.838
aF0.838
aF0.838
aF0.838
aF0.838
aF0.838
aF0.838
aF0.838
aF0.838
aF0.838
aF0.838
aF0.838
aF0.838
aF0.838
aF0.838
aF0.838
aF0.838
aF0.838
aF0.838
aF0.838
aF0.838
aF0.838
aF0.838
aF0.838
aF0.838
aF0.838
aF0.838
aF0.838
aF0.838
aF0.838
aF0.838
aF0.838
aF0.838
aF0.838
aF0.838
aF0.838
aF0.838
aF0.838
aF0.838
aF0.838
aF0.838
aF0.838
aF0.838
aF0.838
aF0.838
aF0.838
aF0.838
aF0.838
aF0.838
aF0.838
aF0.838
aF0.838
aF0.838
aF0.838
aF0.838
aF0.838
aF0.838
aF0.838
aF0.838
aF0.838
aF0.838
aF0.838
aF0.838
aF0.838
aF0.838
aF0.838
aF0.838
aF0.838
aF0.838
aF0.838
aF0.838
aF0.838
aF0.838
aF0.838
aF0.838
aF0.838
aF0.838
aF0.838
aF0.838
aF0.838
aF0.838
aF0.838
aF0.838
aF0.838
aF0.838
aF0.838
aF0.838
aF0.838
aF0.838
aF0.838
aF0.838
aF0.838
aF0.838
aF0.838
aF0.838
aF0.838
aF0.838
aF0.838
aF0.838
aF0.838
aF0.838
aF0.838
aF0.838
aF0.838
aF0.838
aF0.838
aF0.838
aF0.838
aF0.838
aF0.838
aF0.838
aF0.838
aF0.838
aF0.838
aF0.838
aF0.838
aF0.838
aF0.838
aF0.838
aF0.838
aF0.838
aF0.838
aF0.838
aF0.838
aF0.838
aF0.838
aF0.838
aF0.838
aF0.838
aF0.838
aF0.838
aF0.838
aF0.838
aF0.838
aF0.838
aF0.838
aF0.838
aF0.838
aF0.838
aF0.838
aF0.838
aF0.838
aF0.838
aF0.838
aF0.838
aF0.838
aF0.838
aF0.838
aF0.838
aF0.838
aF0.838
aF0.838
aF0.838
aF0.838
aF0.838
aF0.838
aF0.838
aF0.838
aF0.838
aF0.838
aF0.838
aF0.838
aF0.838
aF0.838
aF0.838
aF0.838
aF0.838
aF0.838
aF0.838
aF0.838
aF0.838
aF0.838
aF0.838
aF0.838
aF0.838
aF0.838
aF0.838
aF0.838
aF0.838
aF0.838
aF0.838
aF0.838
aF0.838
aF0.838
aF0.838
aF0.838
aF0.838
aF0.838
aF0.838
aF0.838
aF0.838
aF0.838
aF0.838
aF0.838
aF0.838
aF0.838
aF0.838
aF0.838
aF0.838
aF0.838
aF0.838
aF0.838
aF0.838
aF0.838
aF0.838
aF0.838
aF0.838
aF0.838
aF0.838
aF0.838
aF0.838
aF0.838
aF0.838
aF0.838
aF0.838
aF0.838
aF0.838
aF0.838
aF0.838
aF0.838
aF0.838
aF0.838
aF0.838
aF0.838
aF0.838
aF0.838
aF0.838
aF0.838
aF0.838
aF0.838
aF0.838
aF0.838
aF0.838
aF0.838
aF0.838
aF0.838
aF0.838
aF0.838
aF0.838
aF0.838
aF0.838
aF0.838
aF0.838
aF0.838
aF0.838
aF0.838
aF0.838
aF0.838
aF0.838
aF0.838
aF0.838
aF0.838
aF0.838
aF0.838
aF0.838
aF0.838
aF0.838
aF0.838
aF0.838
aF0.838
aF0.838
aF0.838
aF0.838
aF0.838
aF0.838
aF0.838
aF0.838
aF0.838
aF0.838
aF0.838
aF0.838
aF0.838
aF0.838
aF0.838
aF0.838
aF0.838
aF0.838
aF0.838
aF0.838
aF0.838
aF0.838
aF0.838
aF0.838
aF0.838
aF0.838
aF0.838
aF0.838
aF0.838
aF0.838
aF0.838
aF0.838
aF0.838
aF0.838
aF0.838
aF0.838
aF0.838
aF0.838
aF0.838
aF0.838
aF0.838
aF0.838
aF0.838
aF0.838
aF0.838
aF0.838
aF0.838
aF0.838
aF0.838
aF0.838
aF0.838
aF0.838
aF0.838
aF0.838
aF0.838
aF0.838
aF0.838
aF0.838
aF0.838
aF0.838
aF0.838
aF0.838
aF0.838
aF0.838
aF0.838
aF0.838
aF0.838
aF0.838
aF0.838
aF0.838
aF0.838
aF0.838
aF0.838
aF0.838
aF0.838
aF0.838
aF0.838
aF0.838
aF0.838
aF0.838
aF0.838
aF0.838
aF0.838
aF0.838
aF0.838
aF0.838
aF0.838
aF0.838
aF0.838
aF0.838
aF0.838
aF0.838
aF0.838
aF0.838
aF0.838
aF0.838
aF0.838
aF0.838
aF0.838
aF0.838
aF0.838
aF0.838
aF0.838
aF0.838
aF0.838
aF0.838
aF0.838
aF0.838
aF0.838
aF0.838
aF0.838
aF0.838
aF0.838
aF0.838
aF0.838
aF0.838
aF0.838
aF0.838
aF0.838
aF0.838
aF0.838
aF0.838
aF0.838
aF0.838
aF0.838
aF0.838
aF0.838
aF0.838
aF0.838
aF0.838
aF0.838
aF0.838
aF0.838
aF0.838
aF0.838
aF0.838
aF0.838
aF0.838
aF0.838
aF0.838
aF0.838
aF0.838
aF0.838
aF0.838
aF0.838
aF0.838
aF0.838
aF0.838
aF0.838
aF0.838
aF0.838
aF0.838
aF0.838
aF0.838
aF0.838
aF0.838
aF0.838
aF0.838
aF0.838
aF0.838
aF0.838
aF0.838
aF0.838
aF0.838
aF0.838
aF0.838
aF0.838
aF0.838
aF0.838
aF0.838
aF0.838
aF0.838
aF0.838
aF0.838
aF0.838
aF0.838
aF0.838
aF0.838
aF0.838
aF0.838
aF0.838
aF0.838
aF0.838
aF0.838
aF0.838
aF0.838
aF0.838
aF0.838
aF0.838
aF0.838
aF0.838
aF0.838
aF0.838
aF0.838
aF0.838
aF0.838
aF0.838
aF0.838
aF0.838
aF0.838
aF0.838
aF0.838
aF0.838
aF0.838
aF0.838
aF0.838
aF0.838
aF0.838
aF0.838
aF0.838
aF0.838
aF0.838
aF0.838
aF0.838
aF0.838
aF0.838
aF0.838
aF0.838
aF0.838
aF0.838
aF0.838
aF0.838
aF0.838
aF0.838
aF0.838
aF0.838
aF0.838
aF0.838
aF0.838
aF0.838
aF0.838
aF0.838
aF0.838
aF0.838
aF0.838
aF0.838
aF0.838
aF0.838
aF0.838
aF0.838
aF0.838
aF0.838
aF0.838
aF0.838
aF0.838
aF0.838
aF0.838
aF0.838
aF0.838
aF0.838
aF0.838
aF0.838
aF0.838
aF0.838
aF0.838
aF0.838
aF0.838
aF0.838
aF0.838
aF0.838
aF0.838
aF0.838
aF0.838
aF0.838
aF0.838
aF0.838
aF0.838
aF0.838
aF0.838
aF0.838
aF0.838
aF0.838
aF0.838
aF0.838
aF0.838
aF0.838
aF0.838
aF0.838
assF0.1
(lp7
F836.727
aF836.252
aF830.817
aF836.455
aF834.002
aF836.029
aF836.788
aF833.126
aF833.609
aF835.906
aF833.719
aF833.09
aF836.421
aF835.967
aF836.598
aF835.353
aF837.162
aF788.211
aF835.92
aF836.424
aF835.636
asF0.05
(lp8
F836.727
aF836.252
aF830.915
aF836.455
aF834.002
aF836.029
aF836.788
aF833.462
aF833.609
aF835.906
aF834.09
aF833.54
aF836.421
aF836.123
aF836.598
aF835.457
aF837.162
aF788.211
aF835.92
aF836.424
aF835.636
asS'time'
p9
F39108.97777199745
sF0.2
(lp10
F733.091
aF836.252
aF830.817
aF836.455
aF832.674
aF836.029
aF836.673
aF660.076
aF833.609
aF835.746
aF833.719
aF833.09
aF836.421
aF835.967
aF836.598
aF835.353
aF837.162
aF788.211
aF646.353
aF836.424
aF835.636
asF0.025
(lp11
F836.727
aF836.252
aF830.915
aF836.49
aF834.002
aF836.029
aF836.788
aF833.462
aF833.764
aF835.906
aF834.124
aF833.54
aF836.421
aF836.123
aF836.598
aF835.457
aF837.162
aF836.99
aF835.92
aF836.424
aF835.636
as.