(dp0
S'temp'
p1
(dp2
F0.1
(lp3
F0.731
aF0.731
aF0.731
aF0.731
aF0.731
aF0.731
aF0.731
aF0.731
aF0.731
aF0.731
aF0.731
aF0.731
aF0.731
aF0.731
aF0.731
aF0.731
aF0.731
aF0.731
aF0.731
aF0.731
aF0.731
aF0.731
aF0.731
aF0.731
aF0.731
aF0.731
aF0.731
aF0.731
aF0.731
aF0.731
aF0.731
aF0.731
aF0.731
aF0.731
aF0.731
aF0.731
aF0.731
aF0.731
aF0.731
aF0.731
aF0.731
aF0.731
aF0.731
aF0.731
aF0.731
aF0.731
aF0.731
aF0.731
aF0.731
aF0.731
aF0.731
aF0.731
aF0.731
aF0.731
aF0.731
aF0.731
aF0.731
aF0.731
aF0.731
aF0.731
aF0.731
aF0.731
aF0.731
aF0.731
aF0.731
aF0.731
aF0.731
aF0.731
aF0.731
aF0.731
aF0.731
aF0.731
aF0.731
aF0.731
aF0.731
aF0.731
aF0.731
aF0.731
aF0.731
aF0.731
aF0.731
aF0.731
aF0.731
aF0.731
aF0.731
aF0.731
aF0.731
aF0.731
aF0.731
aF0.731
aF0.731
aF0.731
aF0.731
aF0.731
aF0.731
aF0.731
aF0.731
aF0.731
aF0.731
aF0.731
aF0.731
aF0.731
aF0.731
aF0.731
aF0.731
aF0.731
aF0.731
aF0.731
aF0.731
aF0.731
aF0.731
aF0.731
aF0.731
aF0.731
aF0.731
aF0.731
aF0.731
aF0.731
aF0.731
aF0.731
aF0.731
aF0.731
aF0.731
aF0.731
aF0.731
aF0.731
aF0.731
aF0.731
aF0.731
aF0.731
aF0.731
aF0.731
aF0.731
aF0.731
aF0.731
aF0.731
aF0.731
aF0.731
aF0.731
aF0.731
aF0.731
aF0.731
aF0.731
aF0.731
aF0.731
aF0.731
aF0.731
aF0.731
aF0.731
aF0.731
aF0.731
aF0.731
aF0.731
aF0.731
aF0.731
aF0.731
aF0.731
aF0.731
aF0.731
aF0.731
aF0.731
aF0.731
aF0.731
aF0.731
aF0.731
aF0.731
aF0.731
aF0.731
aF0.731
aF0.731
aF0.731
aF0.731
aF0.731
aF0.731
aF0.731
aF0.731
aF0.731
aF0.731
aF0.731
aF0.731
aF0.731
aF0.731
aF0.731
aF0.731
aF0.731
aF0.731
aF0.731
aF0.731
aF0.731
aF0.731
aF0.731
aF0.731
aF0.731
aF0.731
aF0.731
aF0.731
aF0.731
aF0.731
aF0.731
aF0.731
aF0.731
aF0.731
aF0.731
aF0.731
aF0.731
aF0.731
aF0.731
aF0.731
aF0.731
aF0.731
aF0.731
aF0.731
aF0.731
aF0.731
aF0.731
aF0.731
aF0.731
aF0.731
aF0.731
aF0.731
aF0.731
aF0.731
aF0.731
aF0.731
aF0.731
aF0.731
aF0.731
aF0.731
aF0.731
aF0.731
aF0.731
aF0.731
aF0.731
aF0.731
aF0.731
aF0.731
aF0.731
aF0.731
aF0.731
aF0.731
aF0.731
aF0.731
aF0.731
aF0.731
aF0.731
aF0.731
aF0.731
aF0.731
aF0.731
aF0.731
aF0.731
aF0.731
aF0.731
aF0.731
aF0.731
aF0.731
aF0.731
aF0.731
aF0.731
aF0.731
aF0.731
aF0.731
aF0.731
aF0.731
aF0.731
aF0.731
aF0.731
aF0.731
aF0.731
aF0.731
aF0.731
aF0.731
aF0.731
aF0.731
aF0.731
aF0.731
aF0.731
aF0.731
aF0.731
aF0.731
aF0.731
aF0.731
aF0.731
aF0.731
aF0.731
aF0.731
aF0.731
aF0.731
aF0.731
aF0.731
aF0.731
aF0.731
aF0.731
aF0.731
aF0.731
aF0.731
aF0.731
aF0.731
aF0.731
aF0.731
aF0.731
aF0.731
aF0.731
aF0.731
aF0.731
aF0.731
aF0.731
aF0.731
aF0.731
aF0.731
aF0.731
aF0.731
aF0.731
aF0.731
aF0.731
aF0.731
aF0.731
aF0.731
aF0.731
aF0.731
aF0.731
aF0.731
aF0.731
aF0.731
aF0.731
aF0.731
aF0.731
aF0.731
aF0.731
aF0.731
aF0.731
aF0.731
aF0.731
aF0.731
aF0.731
aF0.731
aF0.731
aF0.731
aF0.731
aF0.731
aF0.731
aF0.731
aF0.731
aF0.731
aF0.731
aF0.731
aF0.731
aF0.731
aF0.731
aF0.731
aF0.731
aF0.731
aF0.731
aF0.731
aF0.731
aF0.731
aF0.731
aF0.731
aF0.731
aF0.731
aF0.731
aF0.731
aF0.731
aF0.731
aF0.731
aF0.731
aF0.731
aF0.731
aF0.731
aF0.731
aF0.731
aF0.731
aF0.731
aF0.731
aF0.731
aF0.731
aF0.731
aF0.731
aF0.731
aF0.731
aF0.731
aF0.731
aF0.731
aF0.731
aF0.731
aF0.731
aF0.731
aF0.731
aF0.731
aF0.731
aF0.731
aF0.731
aF0.731
aF0.731
aF0.731
aF0.731
aF0.731
aF0.731
aF0.731
aF0.731
aF0.731
aF0.731
aF0.731
aF0.731
aF0.731
aF0.731
aF0.731
aF0.731
aF0.731
aF0.731
aF0.731
aF0.731
aF0.731
aF0.731
aF0.731
aF0.731
aF0.731
aF0.731
aF0.731
aF0.731
aF0.731
aF0.731
aF0.731
aF0.731
aF0.731
aF0.731
aF0.731
aF0.731
aF0.731
aF0.731
aF0.731
aF0.731
aF0.731
aF0.731
aF0.731
aF0.731
aF0.731
aF0.731
aF0.731
aF0.731
aF0.731
aF0.731
aF0.731
aF0.731
aF0.731
aF0.731
aF0.731
aF0.731
aF0.731
aF0.731
aF0.731
aF0.731
aF0.731
aF0.731
aF0.731
aF0.731
aF0.731
aF0.731
aF0.731
aF0.731
aF0.731
aF0.731
aF0.731
aF0.731
aF0.731
aF0.731
aF0.731
aF0.731
aF0.731
aF0.731
aF0.731
aF0.731
aF0.731
aF0.731
aF0.731
aF0.731
aF0.731
aF0.731
aF0.731
aF0.731
aF0.731
aF0.731
aF0.731
aF0.731
aF0.731
aF0.731
aF0.731
aF0.731
aF0.731
aF0.731
aF0.731
aF0.731
aF0.731
aF0.731
aF0.731
aF0.731
aF0.731
aF0.731
aF0.731
aF0.731
aF0.731
aF0.731
aF0.731
aF0.731
aF0.731
aF0.731
aF0.731
aF0.731
aF0.731
aF0.731
aF0.731
aF0.731
aF0.731
aF0.731
aF0.731
aF0.731
aF0.731
aF0.731
aF0.731
aF0.731
aF0.731
aF0.731
aF0.731
aF0.731
aF0.731
aF0.731
aF0.731
aF0.731
aF0.731
aF0.731
aF0.731
aF0.731
aF0.731
aF0.731
aF0.731
aF0.731
aF0.731
aF0.731
aF0.731
aF0.731
aF0.731
aF0.731
aF0.731
aF0.731
aF0.731
aF0.731
aF0.731
aF0.731
aF0.731
aF0.731
aF0.731
aF0.731
aF0.731
aF0.731
aF0.731
aF0.731
aF0.731
aF0.731
aF0.731
aF0.731
aF0.731
aF0.731
aF0.731
aF0.731
aF0.731
aF0.731
aF0.731
aF0.731
aF0.731
aF0.731
aF0.731
aF0.731
aF0.731
aF0.731
aF0.731
aF0.731
aF0.731
aF0.731
aF0.731
aF0.731
aF0.731
aF0.731
aF0.731
aF0.731
aF0.731
aF0.731
aF0.731
aF0.731
aF0.731
aF0.731
aF0.731
aF0.731
aF0.731
aF0.731
aF0.731
aF0.731
aF0.731
aF0.731
aF0.731
aF0.731
aF0.731
aF0.731
aF0.731
aF0.731
aF0.731
aF0.731
aF0.731
aF0.731
aF0.731
aF0.731
aF0.731
aF0.731
aF0.731
aF0.731
aF0.731
aF0.731
aF0.731
aF0.731
aF0.731
aF0.731
aF0.731
aF0.731
aF0.731
aF0.731
aF0.731
aF0.731
aF0.731
aF0.731
aF0.731
aF0.731
aF0.731
aF0.731
aF0.731
aF0.731
aF0.731
aF0.731
aF0.731
aF0.731
aF0.731
aF0.731
aF0.731
aF0.731
aF0.731
aF0.731
aF0.731
aF0.731
aF0.731
aF0.731
aF0.731
aF0.731
aF0.731
aF0.731
aF0.731
aF0.731
aF0.731
aF0.731
aF0.731
aF0.731
aF0.731
aF0.731
aF0.731
aF0.731
aF0.731
aF0.731
aF0.731
aF0.731
aF0.731
aF0.731
aF0.731
aF0.731
aF0.731
aF0.731
aF0.731
aF0.731
aF0.731
aF0.731
aF0.731
aF0.731
aF0.731
aF0.731
aF0.731
aF0.731
aF0.731
aF0.731
aF0.731
aF0.731
aF0.731
aF0.731
aF0.731
aF0.731
aF0.731
aF0.731
aF0.731
aF0.731
aF0.731
aF0.731
aF0.731
aF0.731
aF0.731
aF0.731
aF0.731
aF0.731
aF0.731
aF0.731
aF0.731
aF0.731
aF0.731
aF0.731
aF0.731
aF0.731
aF0.731
aF0.731
aF0.731
aF0.731
aF0.731
aF0.731
aF0.731
aF0.731
aF0.731
aF0.731
aF0.731
aF0.731
aF0.731
aF0.731
aF0.731
aF0.731
aF0.731
aF0.731
aF0.731
aF0.731
aF0.731
aF0.731
aF0.731
aF0.731
aF0.731
aF0.731
aF0.731
aF0.731
aF0.731
aF0.731
aF0.731
aF0.731
aF0.731
aF0.731
aF0.731
aF0.731
aF0.731
aF0.731
aF0.731
aF0.731
aF0.731
aF0.731
aF0.731
aF0.731
aF0.731
aF0.731
aF0.731
aF0.731
aF0.731
aF0.731
aF0.731
aF0.731
aF0.731
aF0.731
aF0.731
aF0.731
aF0.731
aF0.731
aF0.731
aF0.731
aF0.731
aF0.731
aF0.731
aF0.731
aF0.731
aF0.731
aF0.731
aF0.731
aF0.731
aF0.731
aF0.731
aF0.731
aF0.731
aF0.731
aF0.731
aF0.731
aF0.731
aF0.731
aF0.731
aF0.731
aF0.731
aF0.731
aF0.731
aF0.731
aF0.731
aF0.731
aF0.731
aF0.731
aF0.731
aF0.731
aF0.731
aF0.731
aF0.731
aF0.731
aF0.731
aF0.731
aF0.731
aF0.731
aF0.731
aF0.731
aF0.731
aF0.731
aF0.731
aF0.731
aF0.731
aF0.731
aF0.731
aF0.731
aF0.731
aF0.731
aF0.731
aF0.731
aF0.731
aF0.731
aF0.731
aF0.731
aF0.731
aF0.731
aF0.731
aF0.731
aF0.731
aF0.731
aF0.731
aF0.731
aF0.731
aF0.731
aF0.731
aF0.731
aF0.731
aF0.731
aF0.731
aF0.731
aF0.731
aF0.731
aF0.731
aF0.731
aF0.731
aF0.731
aF0.731
aF0.731
aF0.731
aF0.731
aF0.731
aF0.731
aF0.731
aF0.731
aF0.731
aF0.731
aF0.731
aF0.731
aF0.731
aF0.731
aF0.731
aF0.731
aF0.731
aF0.731
aF0.731
aF0.731
aF0.731
aF0.731
aF0.731
aF0.731
aF0.731
aF0.731
aF0.731
aF0.731
aF0.731
aF0.731
aF0.731
aF0.731
aF0.731
aF0.731
aF0.731
aF0.731
aF0.731
aF0.731
aF0.731
aF0.731
aF0.731
aF0.731
aF0.731
aF0.731
aF0.731
aF0.731
aF0.731
aF0.731
aF0.731
aF0.731
aF0.731
aF0.731
aF0.731
aF0.731
aF0.731
aF0.731
aF0.731
aF0.731
aF0.731
aF0.731
aF0.731
aF0.731
aF0.731
aF0.731
aF0.731
aF0.731
aF0.731
aF0.731
aF0.731
aF0.731
aF0.731
aF0.731
aF0.731
aF0.731
aF0.731
aF0.731
aF0.731
aF0.731
aF0.731
aF0.731
aF0.731
aF0.731
aF0.731
aF0.731
aF0.731
aF0.731
aF0.731
aF0.731
aF0.731
aF0.731
aF0.731
aF0.731
aF0.731
aF0.731
aF0.731
aF0.731
aF0.731
aF0.731
aF0.731
aF0.731
aF0.731
aF0.731
aF0.731
aF0.731
aF0.731
aF0.731
aF0.731
aF0.731
aF0.731
aF0.731
aF0.731
aF0.731
aF0.731
aF0.731
aF0.731
aF0.731
aF0.731
aF0.731
aF0.731
aF0.731
aF0.731
aF0.731
aF0.731
aF0.731
aF0.731
aF0.731
aF0.731
aF0.731
aF0.731
aF0.731
aF0.731
aF0.731
aF0.731
aF0.731
aF0.731
aF0.731
aF0.731
aF0.731
aF0.731
aF0.731
aF0.731
aF0.731
aF0.731
aF0.731
aF0.731
aF0.731
aF0.731
aF0.731
aF0.731
aF0.731
aF0.731
aF0.731
asF0.2
(lp4
F0.731
aF0.731
aF0.731
aF0.731
aF0.731
aF0.731
aF0.731
aF0.731
aF0.731
aF0.731
aF0.731
aF0.731
aF0.731
aF0.731
aF0.731
aF0.731
aF0.731
aF0.731
aF0.731
aF0.731
aF0.731
aF0.731
aF0.731
aF0.731
aF0.731
aF0.731
aF0.731
aF0.731
aF0.731
aF0.731
aF0.731
aF0.731
aF0.731
aF0.731
aF0.731
aF0.731
aF0.731
aF0.731
aF0.731
aF0.731
aF0.731
aF0.731
aF0.731
aF0.731
aF0.731
aF0.731
aF0.731
aF0.731
aF0.731
aF0.731
aF0.731
aF0.731
aF0.731
aF0.731
aF0.731
aF0.731
aF0.731
aF0.731
aF0.731
aF0.731
aF0.731
aF0.731
aF0.731
aF0.731
aF0.731
aF0.731
aF0.731
aF0.731
aF0.731
aF0.731
aF0.731
aF0.731
aF0.731
aF0.731
aF0.731
aF0.731
aF0.731
aF0.731
aF0.731
aF0.731
aF0.731
aF0.731
aF0.731
aF0.731
aF0.731
aF0.731
aF0.731
aF0.731
aF0.731
aF0.731
aF0.731
aF0.731
aF0.731
aF0.731
aF0.731
aF0.731
aF0.731
aF0.731
aF0.731
aF0.731
aF0.731
aF0.731
aF0.731
aF0.731
aF0.731
aF0.731
aF0.731
aF0.731
aF0.731
aF0.731
aF0.731
aF0.731
aF0.731
aF0.731
aF0.731
aF0.731
aF0.731
aF0.731
aF0.731
aF0.731
aF0.731
aF0.731
aF0.731
aF0.731
aF0.731
aF0.731
aF0.731
aF0.731
aF0.731
aF0.731
aF0.731
aF0.731
aF0.731
aF0.731
aF0.731
aF0.731
aF0.731
aF0.731
aF0.731
aF0.731
aF0.731
aF0.731
aF0.731
aF0.731
aF0.731
aF0.731
aF0.731
aF0.731
aF0.731
aF0.731
aF0.731
aF0.731
aF0.731
aF0.731
aF0.731
aF0.731
aF0.731
aF0.731
aF0.731
aF0.731
aF0.731
aF0.731
aF0.731
aF0.731
aF0.731
aF0.731
aF0.731
aF0.731
aF0.731
aF0.731
aF0.731
aF0.731
aF0.731
aF0.731
aF0.731
aF0.731
aF0.731
aF0.731
aF0.731
aF0.731
aF0.731
aF0.731
aF0.731
aF0.731
aF0.731
aF0.731
aF0.731
aF0.731
aF0.731
aF0.731
aF0.731
aF0.731
aF0.731
aF0.731
aF0.731
aF0.731
aF0.731
aF0.731
aF0.731
aF0.731
aF0.731
aF0.731
aF0.731
aF0.731
aF0.731
aF0.731
aF0.731
aF0.731
aF0.731
aF0.731
aF0.731
aF0.731
aF0.731
aF0.731
aF0.731
aF0.731
aF0.731
aF0.731
aF0.731
aF0.731
aF0.731
aF0.731
aF0.731
aF0.731
aF0.731
aF0.731
aF0.731
aF0.731
aF0.731
aF0.731
aF0.731
aF0.731
aF0.731
aF0.731
aF0.731
aF0.731
aF0.731
aF0.731
aF0.731
aF0.731
aF0.731
aF0.731
aF0.731
aF0.731
aF0.731
aF0.731
aF0.731
aF0.731
aF0.731
aF0.731
aF0.731
aF0.731
aF0.731
aF0.731
aF0.731
aF0.731
aF0.731
aF0.731
aF0.731
aF0.731
aF0.731
aF0.731
aF0.731
aF0.731
aF0.731
aF0.731
aF0.731
aF0.731
aF0.731
aF0.731
aF0.731
aF0.731
aF0.731
aF0.731
aF0.731
aF0.731
aF0.731
aF0.731
aF0.731
aF0.731
aF0.731
aF0.731
aF0.731
aF0.731
aF0.731
aF0.731
aF0.731
aF0.731
aF0.731
aF0.731
aF0.731
aF0.731
aF0.731
aF0.731
aF0.731
aF0.731
aF0.731
aF0.731
aF0.731
aF0.731
aF0.731
aF0.731
aF0.731
aF0.731
aF0.731
aF0.731
aF0.731
aF0.731
aF0.731
aF0.731
aF0.731
aF0.731
aF0.731
aF0.731
aF0.731
aF0.731
aF0.731
aF0.731
aF0.731
aF0.731
aF0.731
aF0.731
aF0.731
aF0.731
aF0.731
aF0.731
aF0.731
aF0.731
aF0.731
aF0.731
aF0.731
aF0.731
aF0.731
aF0.731
aF0.731
aF0.731
aF0.731
aF0.731
aF0.731
aF0.731
aF0.731
aF0.731
aF0.731
aF0.731
aF0.731
aF0.731
aF0.731
aF0.731
aF0.731
aF0.731
aF0.731
aF0.731
aF0.731
aF0.731
aF0.731
aF0.731
aF0.731
aF0.731
aF0.731
aF0.731
aF0.731
aF0.731
aF0.731
aF0.731
aF0.731
aF0.731
aF0.731
aF0.731
aF0.731
aF0.731
aF0.731
aF0.731
aF0.731
aF0.731
aF0.731
aF0.731
aF0.731
aF0.731
aF0.731
aF0.731
aF0.731
aF0.731
aF0.731
aF0.731
aF0.731
aF0.731
aF0.731
aF0.731
aF0.731
aF0.731
aF0.731
aF0.731
aF0.731
aF0.731
aF0.731
aF0.731
aF0.731
aF0.731
aF0.731
aF0.731
aF0.731
aF0.731
aF0.731
aF0.731
aF0.731
aF0.731
aF0.731
aF0.731
aF0.731
aF0.731
aF0.731
aF0.731
aF0.731
aF0.731
aF0.731
aF0.731
aF0.731
aF0.731
aF0.731
aF0.731
aF0.731
aF0.731
aF0.731
aF0.731
aF0.731
aF0.731
aF0.731
aF0.731
aF0.731
aF0.731
aF0.731
aF0.731
aF0.731
aF0.731
aF0.731
aF0.731
aF0.731
aF0.731
aF0.731
aF0.731
aF0.731
aF0.731
aF0.731
aF0.731
aF0.731
aF0.731
aF0.731
aF0.731
aF0.731
aF0.731
aF0.731
aF0.731
aF0.731
aF0.731
aF0.731
aF0.731
aF0.731
aF0.731
aF0.731
aF0.731
aF0.731
aF0.731
aF0.731
aF0.731
aF0.731
aF0.731
aF0.731
aF0.731
aF0.731
aF0.731
aF0.731
aF0.731
aF0.731
aF0.731
aF0.731
aF0.731
aF0.731
aF0.731
aF0.731
aF0.731
aF0.731
aF0.731
aF0.731
aF0.731
aF0.731
aF0.731
aF0.731
aF0.731
aF0.731
aF0.731
aF0.731
aF0.731
aF0.731
aF0.731
aF0.731
aF0.731
aF0.731
aF0.731
aF0.731
aF0.731
aF0.731
aF0.731
aF0.731
aF0.731
aF0.731
aF0.731
aF0.731
aF0.731
aF0.731
aF0.731
aF0.731
aF0.731
aF0.731
aF0.731
aF0.731
aF0.731
aF0.731
aF0.731
aF0.731
aF0.731
aF0.731
aF0.731
aF0.731
aF0.731
aF0.731
aF0.731
aF0.731
aF0.731
aF0.731
aF0.731
aF0.731
aF0.731
aF0.731
aF0.731
aF0.731
aF0.731
aF0.731
aF0.731
aF0.731
aF0.731
aF0.731
aF0.731
aF0.731
aF0.731
aF0.731
aF0.731
aF0.731
aF0.731
aF0.731
aF0.731
aF0.731
aF0.731
aF0.731
aF0.731
aF0.731
aF0.731
aF0.731
aF0.731
aF0.731
aF0.731
aF0.731
aF0.731
aF0.731
aF0.731
aF0.731
aF0.731
aF0.731
aF0.731
aF0.731
aF0.731
aF0.731
aF0.731
aF0.731
aF0.731
aF0.731
aF0.731
aF0.731
aF0.731
aF0.731
aF0.731
aF0.731
aF0.731
aF0.731
aF0.731
aF0.731
aF0.731
aF0.731
aF0.731
aF0.731
aF0.731
aF0.731
aF0.731
aF0.731
aF0.731
aF0.731
aF0.731
aF0.731
aF0.731
aF0.731
aF0.731
aF0.731
aF0.731
aF0.731
aF0.731
aF0.731
aF0.731
aF0.731
aF0.731
aF0.731
aF0.731
aF0.731
aF0.731
aF0.731
aF0.731
aF0.731
aF0.731
aF0.731
aF0.731
aF0.731
aF0.731
aF0.731
aF0.731
aF0.731
aF0.731
aF0.731
aF0.731
aF0.731
aF0.731
aF0.731
aF0.731
aF0.731
aF0.731
aF0.731
aF0.731
aF0.731
aF0.731
aF0.731
aF0.731
aF0.731
aF0.731
aF0.731
aF0.731
aF0.731
aF0.731
aF0.731
aF0.731
aF0.731
aF0.731
aF0.731
aF0.731
aF0.731
aF0.731
aF0.731
aF0.731
aF0.731
aF0.731
aF0.731
aF0.731
aF0.731
aF0.731
aF0.731
aF0.731
aF0.731
aF0.731
aF0.731
aF0.731
aF0.731
aF0.731
aF0.731
aF0.731
aF0.731
aF0.731
aF0.731
aF0.731
aF0.731
aF0.731
aF0.731
aF0.731
aF0.731
aF0.731
aF0.731
aF0.731
aF0.731
aF0.731
aF0.731
aF0.731
aF0.731
aF0.731
aF0.731
aF0.731
aF0.731
aF0.731
aF0.731
aF0.731
aF0.731
aF0.731
aF0.731
aF0.731
aF0.731
aF0.731
aF0.731
aF0.731
aF0.731
aF0.731
aF0.731
aF0.731
aF0.731
aF0.731
aF0.731
aF0.731
aF0.731
aF0.731
aF0.731
aF0.731
aF0.731
aF0.731
aF0.731
aF0.731
aF0.731
aF0.731
aF0.731
aF0.731
aF0.731
aF0.731
aF0.731
aF0.731
aF0.731
aF0.731
aF0.731
aF0.731
aF0.731
aF0.731
aF0.731
aF0.731
aF0.731
aF0.731
aF0.731
aF0.731
aF0.731
aF0.731
aF0.731
aF0.731
aF0.731
aF0.731
aF0.731
aF0.731
aF0.731
aF0.731
aF0.731
aF0.731
aF0.731
aF0.731
aF0.731
aF0.731
aF0.731
aF0.731
aF0.731
aF0.731
aF0.731
aF0.731
aF0.731
aF0.731
aF0.731
aF0.731
aF0.731
aF0.731
aF0.731
aF0.731
aF0.731
aF0.731
aF0.731
aF0.731
aF0.731
aF0.731
aF0.731
aF0.731
aF0.731
aF0.731
aF0.731
aF0.731
aF0.731
aF0.731
aF0.731
aF0.731
aF0.731
aF0.731
aF0.731
aF0.731
aF0.731
aF0.731
aF0.731
aF0.731
aF0.731
aF0.731
aF0.731
aF0.731
aF0.731
aF0.731
aF0.731
aF0.731
aF0.731
aF0.731
aF0.731
aF0.731
aF0.731
aF0.731
aF0.731
aF0.731
aF0.731
aF0.731
aF0.731
aF0.731
aF0.731
aF0.731
aF0.731
aF0.731
aF0.731
aF0.731
aF0.731
aF0.731
aF0.731
aF0.731
aF0.731
aF0.731
aF0.731
aF0.731
aF0.731
aF0.731
aF0.731
aF0.731
aF0.731
aF0.731
aF0.731
aF0.731
aF0.731
aF0.731
aF0.731
aF0.731
aF0.731
aF0.731
aF0.731
aF0.731
aF0.731
aF0.731
aF0.731
aF0.731
aF0.731
aF0.731
aF0.731
aF0.731
aF0.731
aF0.731
aF0.731
aF0.731
aF0.731
aF0.731
aF0.731
aF0.731
aF0.731
aF0.731
aF0.731
aF0.731
aF0.731
aF0.731
aF0.731
aF0.731
aF0.731
aF0.731
aF0.731
aF0.731
aF0.731
aF0.731
aF0.731
aF0.731
aF0.731
aF0.731
aF0.731
aF0.731
aF0.731
aF0.731
aF0.731
aF0.731
aF0.731
aF0.731
aF0.731
aF0.731
aF0.731
aF0.731
aF0.731
aF0.731
aF0.731
aF0.731
aF0.731
aF0.731
aF0.731
aF0.731
aF0.731
aF0.731
aF0.731
aF0.731
aF0.731
aF0.731
aF0.731
aF0.731
aF0.731
aF0.731
aF0.731
aF0.731
aF0.731
aF0.731
aF0.731
aF0.731
aF0.731
aF0.731
aF0.731
aF0.731
aF0.731
aF0.731
aF0.731
aF0.731
aF0.731
aF0.731
aF0.731
aF0.731
aF0.731
aF0.731
aF0.731
aF0.731
aF0.731
aF0.731
aF0.731
aF0.731
aF0.731
aF0.731
aF0.731
aF0.731
aF0.731
aF0.731
aF0.731
aF0.731
aF0.731
aF0.731
aF0.731
aF0.731
aF0.731
aF0.731
aF0.731
aF0.731
aF0.731
aF0.731
aF0.731
aF0.731
aF0.731
aF0.731
aF0.731
aF0.731
aF0.731
aF0.731
aF0.731
aF0.731
aF0.731
aF0.731
aF0.731
aF0.731
aF0.731
aF0.731
aF0.731
aF0.731
aF0.731
aF0.731
aF0.731
aF0.731
aF0.731
aF0.731
aF0.731
aF0.731
aF0.731
aF0.731
aF0.731
aF0.731
aF0.731
aF0.731
aF0.731
aF0.731
aF0.731
aF0.731
aF0.731
aF0.731
aF0.731
aF0.731
aF0.731
aF0.731
aF0.731
aF0.731
aF0.731
aF0.731
aF0.731
aF0.731
aF0.731
aF0.731
asF0.05
(lp5
F0.731
aF0.731
aF0.731
aF0.731
aF0.731
aF0.731
aF0.731
aF0.731
aF0.731
aF0.731
aF0.731
aF0.731
aF0.731
aF0.731
aF0.731
aF0.731
aF0.731
aF0.731
aF0.731
aF0.731
aF0.731
aF0.731
aF0.731
aF0.731
aF0.731
aF0.731
aF0.731
aF0.731
aF0.731
aF0.731
aF0.731
aF0.731
aF0.731
aF0.731
aF0.731
aF0.731
aF0.731
aF0.731
aF0.731
aF0.731
aF0.731
aF0.731
aF0.731
aF0.731
aF0.731
aF0.731
aF0.731
aF0.731
aF0.731
aF0.731
aF0.731
aF0.731
aF0.731
aF0.731
aF0.731
aF0.731
aF0.731
aF0.731
aF0.731
aF0.731
aF0.731
aF0.731
aF0.731
aF0.731
aF0.731
aF0.731
aF0.731
aF0.731
aF0.731
aF0.731
aF0.731
aF0.731
aF0.731
aF0.731
aF0.731
aF0.731
aF0.731
aF0.731
aF0.731
aF0.731
aF0.731
aF0.731
aF0.731
aF0.731
aF0.731
aF0.731
aF0.731
aF0.731
aF0.731
aF0.731
aF0.731
aF0.731
aF0.731
aF0.731
aF0.731
aF0.731
aF0.731
aF0.731
aF0.731
aF0.731
aF0.731
aF0.731
aF0.731
aF0.731
aF0.731
aF0.731
aF0.731
aF0.731
aF0.731
aF0.731
aF0.731
aF0.731
aF0.731
aF0.731
aF0.731
aF0.731
aF0.731
aF0.731
aF0.731
aF0.731
aF0.731
aF0.731
aF0.731
aF0.731
aF0.731
aF0.731
aF0.731
aF0.731
aF0.731
aF0.731
aF0.731
aF0.731
aF0.731
aF0.731
aF0.731
aF0.731
aF0.731
aF0.731
aF0.731
aF0.731
aF0.731
aF0.731
aF0.731
aF0.731
aF0.731
aF0.731
aF0.731
aF0.731
aF0.731
aF0.731
aF0.731
aF0.731
aF0.731
aF0.731
aF0.731
aF0.731
aF0.731
aF0.731
aF0.731
aF0.731
aF0.731
aF0.731
aF0.731
aF0.731
aF0.731
aF0.731
aF0.731
aF0.731
aF0.731
aF0.731
aF0.731
aF0.731
aF0.731
aF0.731
aF0.731
aF0.731
aF0.731
aF0.731
aF0.731
aF0.731
aF0.731
aF0.731
aF0.731
aF0.731
aF0.731
aF0.731
aF0.731
aF0.731
aF0.731
aF0.731
aF0.731
aF0.731
aF0.731
aF0.731
aF0.731
aF0.731
aF0.731
aF0.731
aF0.731
aF0.731
aF0.731
aF0.731
aF0.731
aF0.731
aF0.731
aF0.731
aF0.731
aF0.731
aF0.731
aF0.731
aF0.731
aF0.731
aF0.731
aF0.731
aF0.731
aF0.731
aF0.731
aF0.731
aF0.731
aF0.731
aF0.731
aF0.731
aF0.731
aF0.731
aF0.731
aF0.731
aF0.731
aF0.731
aF0.731
aF0.731
aF0.731
aF0.731
aF0.731
aF0.731
aF0.731
aF0.731
aF0.731
aF0.731
aF0.731
aF0.731
aF0.731
aF0.731
aF0.731
aF0.731
aF0.731
aF0.731
aF0.731
aF0.731
aF0.731
aF0.731
aF0.731
aF0.731
aF0.731
aF0.731
aF0.731
aF0.731
aF0.731
aF0.731
aF0.731
aF0.731
aF0.731
aF0.731
aF0.731
aF0.731
aF0.731
aF0.731
aF0.731
aF0.731
aF0.731
aF0.731
aF0.731
aF0.731
aF0.731
aF0.731
aF0.731
aF0.731
aF0.731
aF0.731
aF0.731
aF0.731
aF0.731
aF0.731
aF0.731
aF0.731
aF0.731
aF0.731
aF0.731
aF0.731
aF0.731
aF0.731
aF0.731
aF0.731
aF0.731
aF0.731
aF0.731
aF0.731
aF0.731
aF0.731
aF0.731
aF0.731
aF0.731
aF0.731
aF0.731
aF0.731
aF0.731
aF0.731
aF0.731
aF0.731
aF0.731
aF0.731
aF0.731
aF0.731
aF0.731
aF0.731
aF0.731
aF0.731
aF0.731
aF0.731
aF0.731
aF0.731
aF0.731
aF0.731
aF0.731
aF0.731
aF0.731
aF0.731
aF0.731
aF0.731
aF0.731
aF0.731
aF0.731
aF0.731
aF0.731
aF0.731
aF0.731
aF0.731
aF0.731
aF0.731
aF0.731
aF0.731
aF0.731
aF0.731
aF0.731
aF0.731
aF0.731
aF0.731
aF0.731
aF0.731
aF0.731
aF0.731
aF0.731
aF0.731
aF0.731
aF0.731
aF0.731
aF0.731
aF0.731
aF0.731
aF0.731
aF0.731
aF0.731
aF0.731
aF0.731
aF0.731
aF0.731
aF0.731
aF0.731
aF0.731
aF0.731
aF0.731
aF0.731
aF0.731
aF0.731
aF0.731
aF0.731
aF0.731
aF0.731
aF0.731
aF0.731
aF0.731
aF0.731
aF0.731
aF0.731
aF0.731
aF0.731
aF0.731
aF0.731
aF0.731
aF0.731
aF0.731
aF0.731
aF0.731
aF0.731
aF0.731
aF0.731
aF0.731
aF0.731
aF0.731
aF0.731
aF0.731
aF0.731
aF0.731
aF0.731
aF0.731
aF0.731
aF0.731
aF0.731
aF0.731
aF0.731
aF0.731
aF0.731
aF0.731
aF0.731
aF0.731
aF0.731
aF0.731
aF0.731
aF0.731
aF0.731
aF0.731
aF0.731
aF0.731
aF0.731
aF0.731
aF0.731
aF0.731
aF0.731
aF0.731
aF0.731
aF0.731
aF0.731
aF0.731
aF0.731
aF0.731
aF0.731
aF0.731
aF0.731
aF0.731
aF0.731
aF0.731
aF0.731
aF0.731
aF0.731
aF0.731
aF0.731
aF0.731
aF0.731
aF0.731
aF0.731
aF0.731
aF0.731
aF0.731
aF0.731
aF0.731
aF0.731
aF0.731
aF0.731
aF0.731
aF0.731
aF0.731
aF0.731
aF0.731
aF0.731
aF0.731
aF0.731
aF0.731
aF0.731
aF0.731
aF0.731
aF0.731
aF0.731
aF0.731
aF0.731
aF0.731
aF0.731
aF0.731
aF0.731
aF0.731
aF0.731
aF0.731
aF0.731
aF0.731
aF0.731
aF0.731
aF0.731
aF0.731
aF0.731
aF0.731
aF0.731
aF0.731
aF0.731
aF0.731
aF0.731
aF0.731
aF0.731
aF0.731
aF0.731
aF0.731
aF0.731
aF0.731
aF0.731
aF0.731
aF0.731
aF0.731
aF0.731
aF0.731
aF0.731
aF0.731
aF0.731
aF0.731
aF0.731
aF0.731
aF0.731
aF0.731
aF0.731
aF0.731
aF0.731
aF0.731
aF0.731
aF0.731
aF0.731
aF0.731
aF0.731
aF0.731
aF0.731
aF0.731
aF0.731
aF0.731
aF0.731
aF0.731
aF0.731
aF0.731
aF0.731
aF0.731
aF0.731
aF0.731
aF0.731
aF0.731
aF0.731
aF0.731
aF0.731
aF0.731
aF0.731
aF0.731
aF0.731
aF0.731
aF0.731
aF0.731
aF0.731
aF0.731
aF0.731
aF0.731
aF0.731
aF0.731
aF0.731
aF0.731
aF0.731
aF0.731
aF0.731
aF0.731
aF0.731
aF0.731
aF0.731
aF0.731
aF0.731
aF0.731
aF0.731
aF0.731
aF0.731
aF0.731
aF0.731
aF0.731
aF0.731
aF0.731
aF0.731
aF0.731
aF0.731
aF0.731
aF0.731
aF0.731
aF0.731
aF0.731
aF0.731
aF0.731
aF0.731
aF0.731
aF0.731
aF0.731
aF0.731
aF0.731
aF0.731
aF0.731
aF0.731
aF0.731
aF0.731
aF0.731
aF0.731
aF0.731
aF0.731
aF0.731
aF0.731
aF0.731
aF0.731
aF0.731
aF0.731
aF0.731
aF0.731
aF0.731
aF0.731
aF0.731
aF0.731
aF0.731
aF0.731
aF0.731
aF0.731
aF0.731
aF0.731
aF0.731
aF0.731
aF0.731
aF0.731
aF0.731
aF0.731
aF0.731
aF0.731
aF0.731
aF0.731
aF0.731
aF0.731
aF0.731
aF0.731
aF0.731
aF0.731
aF0.731
aF0.731
aF0.731
aF0.731
aF0.731
aF0.731
aF0.731
aF0.731
aF0.731
aF0.731
aF0.731
aF0.731
aF0.731
aF0.731
aF0.731
aF0.731
aF0.731
aF0.731
aF0.731
aF0.731
aF0.731
aF0.731
aF0.731
aF0.731
aF0.731
aF0.731
aF0.731
aF0.731
aF0.731
aF0.731
aF0.731
aF0.731
aF0.731
aF0.731
aF0.731
aF0.731
aF0.731
aF0.731
aF0.731
aF0.731
aF0.731
aF0.731
aF0.731
aF0.731
aF0.731
aF0.731
aF0.731
aF0.731
aF0.731
aF0.731
aF0.731
aF0.731
aF0.731
aF0.731
aF0.731
aF0.731
aF0.731
aF0.731
aF0.731
aF0.731
aF0.731
aF0.731
aF0.731
aF0.731
aF0.731
aF0.731
aF0.731
aF0.731
aF0.731
aF0.731
aF0.731
aF0.731
aF0.731
aF0.731
aF0.731
aF0.731
aF0.731
aF0.731
aF0.731
aF0.731
aF0.731
aF0.731
aF0.731
aF0.731
aF0.731
aF0.731
aF0.731
aF0.731
aF0.731
aF0.731
aF0.731
aF0.731
aF0.731
aF0.731
aF0.731
aF0.731
aF0.731
aF0.731
aF0.731
aF0.731
aF0.731
aF0.731
aF0.731
aF0.731
aF0.731
aF0.731
aF0.731
aF0.731
aF0.731
aF0.731
aF0.731
aF0.731
aF0.731
aF0.731
aF0.731
aF0.731
aF0.731
aF0.731
aF0.731
aF0.731
aF0.731
aF0.731
aF0.731
aF0.731
aF0.731
aF0.731
aF0.731
aF0.731
aF0.731
aF0.731
aF0.731
aF0.731
aF0.731
aF0.731
aF0.731
aF0.731
aF0.731
aF0.731
aF0.731
aF0.731
aF0.731
aF0.731
aF0.731
aF0.731
aF0.731
aF0.731
aF0.731
aF0.731
aF0.731
aF0.731
aF0.731
aF0.731
aF0.731
aF0.731
aF0.731
aF0.731
aF0.731
aF0.731
aF0.731
aF0.731
aF0.731
aF0.731
aF0.731
aF0.731
aF0.731
aF0.731
aF0.731
aF0.731
aF0.731
aF0.731
aF0.731
aF0.731
aF0.731
aF0.731
aF0.731
aF0.731
aF0.731
aF0.731
aF0.731
aF0.731
aF0.731
aF0.731
aF0.731
aF0.731
aF0.731
aF0.731
aF0.731
aF0.731
aF0.731
aF0.731
aF0.731
aF0.731
aF0.731
aF0.731
aF0.731
aF0.731
aF0.731
aF0.731
aF0.731
aF0.731
aF0.731
aF0.731
aF0.731
aF0.731
aF0.731
aF0.731
aF0.731
aF0.731
aF0.731
aF0.731
aF0.731
aF0.731
aF0.731
aF0.731
aF0.731
aF0.731
aF0.731
aF0.731
aF0.731
aF0.731
aF0.731
aF0.731
aF0.731
aF0.731
aF0.731
aF0.731
aF0.731
aF0.731
aF0.731
aF0.731
aF0.731
aF0.731
aF0.731
aF0.731
aF0.731
aF0.731
aF0.731
aF0.731
aF0.731
aF0.731
aF0.731
aF0.731
aF0.731
aF0.731
aF0.731
aF0.731
aF0.731
aF0.731
aF0.731
aF0.731
aF0.731
aF0.731
aF0.731
aF0.731
aF0.731
aF0.731
aF0.731
aF0.731
aF0.731
aF0.731
aF0.731
aF0.731
aF0.731
aF0.731
aF0.731
aF0.731
aF0.731
aF0.731
aF0.731
aF0.731
aF0.731
aF0.731
aF0.731
aF0.731
aF0.731
aF0.731
aF0.731
aF0.731
aF0.731
aF0.731
aF0.731
aF0.731
aF0.731
aF0.731
aF0.731
aF0.731
aF0.731
aF0.731
aF0.731
aF0.731
aF0.731
aF0.731
aF0.731
aF0.731
aF0.731
aF0.731
aF0.731
aF0.731
aF0.731
aF0.731
aF0.731
aF0.731
aF0.731
aF0.731
aF0.731
aF0.731
aF0.731
aF0.731
aF0.731
aF0.731
aF0.731
aF0.731
aF0.731
aF0.731
aF0.731
aF0.731
aF0.731
aF0.731
aF0.731
aF0.731
aF0.731
aF0.731
aF0.731
aF0.731
aF0.731
aF0.731
aF0.731
aF0.731
aF0.731
aF0.731
aF0.731
aF0.731
aF0.731
aF0.731
aF0.731
aF0.731
aF0.731
aF0.731
aF0.731
aF0.731
aF0.731
aF0.731
aF0.731
aF0.731
aF0.731
aF0.731
aF0.731
aF0.731
aF0.731
aF0.731
aF0.731
aF0.731
aF0.731
aF0.731
aF0.731
aF0.731
aF0.731
aF0.731
aF0.731
aF0.731
aF0.731
aF0.731
aF0.731
aF0.731
aF0.731
aF0.731
aF0.731
asF0.025
(lp6
F0.731
aF0.731
aF0.731
aF0.731
aF0.731
aF0.731
aF0.731
aF0.731
aF0.731
aF0.731
aF0.731
aF0.731
aF0.731
aF0.731
aF0.731
aF0.731
aF0.731
aF0.731
aF0.731
aF0.731
aF0.731
aF0.731
aF0.731
aF0.731
aF0.731
aF0.731
aF0.731
aF0.731
aF0.731
aF0.731
aF0.731
aF0.731
aF0.731
aF0.731
aF0.731
aF0.731
aF0.731
aF0.731
aF0.731
aF0.731
aF0.731
aF0.731
aF0.731
aF0.731
aF0.731
aF0.731
aF0.731
aF0.731
aF0.731
aF0.731
aF0.731
aF0.731
aF0.731
aF0.731
aF0.731
aF0.731
aF0.731
aF0.731
aF0.731
aF0.731
aF0.731
aF0.731
aF0.731
aF0.731
aF0.731
aF0.731
aF0.731
aF0.731
aF0.731
aF0.731
aF0.731
aF0.731
aF0.731
aF0.731
aF0.731
aF0.731
aF0.731
aF0.731
aF0.731
aF0.731
aF0.731
aF0.731
aF0.731
aF0.731
aF0.731
aF0.731
aF0.731
aF0.731
aF0.731
aF0.731
aF0.731
aF0.731
aF0.731
aF0.731
aF0.731
aF0.731
aF0.731
aF0.731
aF0.731
aF0.731
aF0.731
aF0.731
aF0.731
aF0.731
aF0.731
aF0.731
aF0.731
aF0.731
aF0.731
aF0.731
aF0.731
aF0.731
aF0.731
aF0.731
aF0.731
aF0.731
aF0.731
aF0.731
aF0.731
aF0.731
aF0.731
aF0.731
aF0.731
aF0.731
aF0.731
aF0.731
aF0.731
aF0.731
aF0.731
aF0.731
aF0.731
aF0.731
aF0.731
aF0.731
aF0.731
aF0.731
aF0.731
aF0.731
aF0.731
aF0.731
aF0.731
aF0.731
aF0.731
aF0.731
aF0.731
aF0.731
aF0.731
aF0.731
aF0.731
aF0.731
aF0.731
aF0.731
aF0.731
aF0.731
aF0.731
aF0.731
aF0.731
aF0.731
aF0.731
aF0.731
aF0.731
aF0.731
aF0.731
aF0.731
aF0.731
aF0.731
aF0.731
aF0.731
aF0.731
aF0.731
aF0.731
aF0.731
aF0.731
aF0.731
aF0.731
aF0.731
aF0.731
aF0.731
aF0.731
aF0.731
aF0.731
aF0.731
aF0.731
aF0.731
aF0.731
aF0.731
aF0.731
aF0.731
aF0.731
aF0.731
aF0.731
aF0.731
aF0.731
aF0.731
aF0.731
aF0.731
aF0.731
aF0.731
aF0.731
aF0.731
aF0.731
aF0.731
aF0.731
aF0.731
aF0.731
aF0.731
aF0.731
aF0.731
aF0.731
aF0.731
aF0.731
aF0.731
aF0.731
aF0.731
aF0.731
aF0.731
aF0.731
aF0.731
aF0.731
aF0.731
aF0.731
aF0.731
aF0.731
aF0.731
aF0.731
aF0.731
aF0.731
aF0.731
aF0.731
aF0.731
aF0.731
aF0.731
aF0.731
aF0.731
aF0.731
aF0.731
aF0.731
aF0.731
aF0.731
aF0.731
aF0.731
aF0.731
aF0.731
aF0.731
aF0.731
aF0.731
aF0.731
aF0.731
aF0.731
aF0.731
aF0.731
aF0.731
aF0.731
aF0.731
aF0.731
aF0.731
aF0.731
aF0.731
aF0.731
aF0.731
aF0.731
aF0.731
aF0.731
aF0.731
aF0.731
aF0.731
aF0.731
aF0.731
aF0.731
aF0.731
aF0.731
aF0.731
aF0.731
aF0.731
aF0.731
aF0.731
aF0.731
aF0.731
aF0.731
aF0.731
aF0.731
aF0.731
aF0.731
aF0.731
aF0.731
aF0.731
aF0.731
aF0.731
aF0.731
aF0.731
aF0.731
aF0.731
aF0.731
aF0.731
aF0.731
aF0.731
aF0.731
aF0.731
aF0.731
aF0.731
aF0.731
aF0.731
aF0.731
aF0.731
aF0.731
aF0.731
aF0.731
aF0.731
aF0.731
aF0.731
aF0.731
aF0.731
aF0.731
aF0.731
aF0.731
aF0.731
aF0.731
aF0.731
aF0.731
aF0.731
aF0.731
aF0.731
aF0.731
aF0.731
aF0.731
aF0.731
aF0.731
aF0.731
aF0.731
aF0.731
aF0.731
aF0.731
aF0.731
aF0.731
aF0.731
aF0.731
aF0.731
aF0.731
aF0.731
aF0.731
aF0.731
aF0.731
aF0.731
aF0.731
aF0.731
aF0.731
aF0.731
aF0.731
aF0.731
aF0.731
aF0.731
aF0.731
aF0.731
aF0.731
aF0.731
aF0.731
aF0.731
aF0.731
aF0.731
aF0.731
aF0.731
aF0.731
aF0.731
aF0.731
aF0.731
aF0.731
aF0.731
aF0.731
aF0.731
aF0.731
aF0.731
aF0.731
aF0.731
aF0.731
aF0.731
aF0.731
aF0.731
aF0.731
aF0.731
aF0.731
aF0.731
aF0.731
aF0.731
aF0.731
aF0.731
aF0.731
aF0.731
aF0.731
aF0.731
aF0.731
aF0.731
aF0.731
aF0.731
aF0.731
aF0.731
aF0.731
aF0.731
aF0.731
aF0.731
aF0.731
aF0.731
aF0.731
aF0.731
aF0.731
aF0.731
aF0.731
aF0.731
aF0.731
aF0.731
aF0.731
aF0.731
aF0.731
aF0.731
aF0.731
aF0.731
aF0.731
aF0.731
aF0.731
aF0.731
aF0.731
aF0.731
aF0.731
aF0.731
aF0.731
aF0.731
aF0.731
aF0.731
aF0.731
aF0.731
aF0.731
aF0.731
aF0.731
aF0.731
aF0.731
aF0.731
aF0.731
aF0.731
aF0.731
aF0.731
aF0.731
aF0.731
aF0.731
aF0.731
aF0.731
aF0.731
aF0.731
aF0.731
aF0.731
aF0.731
aF0.731
aF0.731
aF0.731
aF0.731
aF0.731
aF0.731
aF0.731
aF0.731
aF0.731
aF0.731
aF0.731
aF0.731
aF0.731
aF0.731
aF0.731
aF0.731
aF0.731
aF0.731
aF0.731
aF0.731
aF0.731
aF0.731
aF0.731
aF0.731
aF0.731
aF0.731
aF0.731
aF0.731
aF0.731
aF0.731
aF0.731
aF0.731
aF0.731
aF0.731
aF0.731
aF0.731
aF0.731
aF0.731
aF0.731
aF0.731
aF0.731
aF0.731
aF0.731
aF0.731
aF0.731
aF0.731
aF0.731
aF0.731
aF0.731
aF0.731
aF0.731
aF0.731
aF0.731
aF0.731
aF0.731
aF0.731
aF0.731
aF0.731
aF0.731
aF0.731
aF0.731
aF0.731
aF0.731
aF0.731
aF0.731
aF0.731
aF0.731
aF0.731
aF0.731
aF0.731
aF0.731
aF0.731
aF0.731
aF0.731
aF0.731
aF0.731
aF0.731
aF0.731
aF0.731
aF0.731
aF0.731
aF0.731
aF0.731
aF0.731
aF0.731
aF0.731
aF0.731
aF0.731
aF0.731
aF0.731
aF0.731
aF0.731
aF0.731
aF0.731
aF0.731
aF0.731
aF0.731
aF0.731
aF0.731
aF0.731
aF0.731
aF0.731
aF0.731
aF0.731
aF0.731
aF0.731
aF0.731
aF0.731
aF0.731
aF0.731
aF0.731
aF0.731
aF0.731
aF0.731
aF0.731
aF0.731
aF0.731
aF0.731
aF0.731
aF0.731
aF0.731
aF0.731
aF0.731
aF0.731
aF0.731
aF0.731
aF0.731
aF0.731
aF0.731
aF0.731
aF0.731
aF0.731
aF0.731
aF0.731
aF0.731
aF0.731
aF0.731
aF0.731
aF0.731
aF0.731
aF0.731
aF0.731
aF0.731
aF0.731
aF0.731
aF0.731
aF0.731
aF0.731
aF0.731
aF0.731
aF0.731
aF0.731
aF0.731
aF0.731
aF0.731
aF0.731
aF0.731
aF0.731
aF0.731
aF0.731
aF0.731
aF0.731
aF0.731
aF0.731
aF0.731
aF0.731
aF0.731
aF0.731
aF0.731
aF0.731
aF0.731
aF0.731
aF0.731
aF0.731
aF0.731
aF0.731
aF0.731
aF0.731
aF0.731
aF0.731
aF0.731
aF0.731
aF0.731
aF0.731
aF0.731
aF0.731
aF0.731
aF0.731
aF0.731
aF0.731
aF0.731
aF0.731
aF0.731
aF0.731
aF0.731
aF0.731
aF0.731
aF0.731
aF0.731
aF0.731
aF0.731
aF0.731
aF0.731
aF0.731
aF0.731
aF0.731
aF0.731
aF0.731
aF0.731
aF0.731
aF0.731
aF0.731
aF0.731
aF0.731
aF0.731
aF0.731
aF0.731
aF0.731
aF0.731
aF0.731
aF0.731
aF0.731
aF0.731
aF0.731
aF0.731
aF0.731
aF0.731
aF0.731
aF0.731
aF0.731
aF0.731
aF0.731
aF0.731
aF0.731
aF0.731
aF0.731
aF0.731
aF0.731
aF0.731
aF0.731
aF0.731
aF0.731
aF0.731
aF0.731
aF0.731
aF0.731
aF0.731
aF0.731
aF0.731
aF0.731
aF0.731
aF0.731
aF0.731
aF0.731
aF0.731
aF0.731
aF0.731
aF0.731
aF0.731
aF0.731
aF0.731
aF0.731
aF0.731
aF0.731
aF0.731
aF0.731
aF0.731
aF0.731
aF0.731
aF0.731
aF0.731
aF0.731
aF0.731
aF0.731
aF0.731
aF0.731
aF0.731
aF0.731
aF0.731
aF0.731
aF0.731
aF0.731
aF0.731
aF0.731
aF0.731
aF0.731
aF0.731
aF0.731
aF0.731
aF0.731
aF0.731
aF0.731
aF0.731
aF0.731
aF0.731
aF0.731
aF0.731
aF0.731
aF0.731
aF0.731
aF0.731
aF0.731
aF0.731
aF0.731
aF0.731
aF0.731
aF0.731
aF0.731
aF0.731
aF0.731
aF0.731
aF0.731
aF0.731
aF0.731
aF0.731
aF0.731
aF0.731
aF0.731
aF0.731
aF0.731
aF0.731
aF0.731
aF0.731
aF0.731
aF0.731
aF0.731
aF0.731
aF0.731
aF0.731
aF0.731
aF0.731
aF0.731
aF0.731
aF0.731
aF0.731
aF0.731
aF0.731
aF0.731
aF0.731
aF0.731
aF0.731
aF0.731
aF0.731
aF0.731
aF0.731
aF0.731
aF0.731
aF0.731
aF0.731
aF0.731
aF0.731
aF0.731
aF0.731
aF0.731
aF0.731
aF0.731
aF0.731
aF0.731
aF0.731
aF0.731
aF0.731
aF0.731
aF0.731
aF0.731
aF0.731
aF0.731
aF0.731
aF0.731
aF0.731
aF0.731
aF0.731
aF0.731
aF0.731
aF0.731
aF0.731
aF0.731
aF0.731
aF0.731
aF0.731
aF0.731
aF0.731
aF0.731
aF0.731
aF0.731
aF0.731
aF0.731
aF0.731
aF0.731
aF0.731
aF0.731
aF0.731
aF0.731
aF0.731
aF0.731
aF0.731
aF0.731
aF0.731
aF0.731
aF0.731
aF0.731
aF0.731
aF0.731
aF0.731
aF0.731
aF0.731
aF0.731
aF0.731
aF0.731
aF0.731
aF0.731
aF0.731
aF0.731
aF0.731
aF0.731
aF0.731
aF0.731
aF0.731
aF0.731
aF0.731
aF0.731
aF0.731
aF0.731
aF0.731
aF0.731
aF0.731
aF0.731
aF0.731
aF0.731
aF0.731
aF0.731
aF0.731
aF0.731
aF0.731
aF0.731
aF0.731
aF0.731
aF0.731
aF0.731
aF0.731
aF0.731
aF0.731
aF0.731
aF0.731
aF0.731
aF0.731
aF0.731
aF0.731
aF0.731
aF0.731
aF0.731
aF0.731
aF0.731
aF0.731
aF0.731
aF0.731
aF0.731
aF0.731
aF0.731
aF0.731
aF0.731
aF0.731
aF0.731
aF0.731
aF0.731
aF0.731
aF0.731
aF0.731
aF0.731
aF0.731
aF0.731
aF0.731
aF0.731
aF0.731
aF0.731
aF0.731
aF0.731
aF0.731
aF0.731
aF0.731
aF0.731
aF0.731
aF0.731
aF0.731
aF0.731
aF0.731
aF0.731
aF0.731
aF0.731
aF0.731
aF0.731
aF0.731
aF0.731
aF0.731
aF0.731
aF0.731
aF0.731
aF0.731
aF0.731
aF0.731
aF0.731
aF0.731
aF0.731
aF0.731
aF0.731
aF0.731
aF0.731
aF0.731
aF0.731
aF0.731
aF0.731
aF0.731
aF0.731
aF0.731
aF0.731
aF0.731
aF0.731
aF0.731
aF0.731
aF0.731
aF0.731
aF0.731
aF0.731
aF0.731
aF0.731
aF0.731
aF0.731
aF0.731
aF0.731
aF0.731
aF0.731
aF0.731
aF0.731
aF0.731
aF0.731
aF0.731
aF0.731
aF0.731
aF0.731
aF0.731
aF0.731
aF0.731
aF0.731
aF0.731
aF0.731
aF0.731
aF0.731
aF0.731
aF0.731
aF0.731
aF0.731
aF0.731
assF0.1
(lp7
F730.269
aF705.294
aF713.286
aF712.287
aF718.281
aF691.308
aF729.27
aF696.303
aF717.282
aF729.27
aF690.309
aF651.348
aF729.27
aF701.298
aF712.287
aF729.27
aF729.27
aF730.269
aF695.304
aF649.35
aF730.269
asF0.05
(lp8
F730.269
aF705.294
aF713.286
aF712.287
aF718.281
aF691.308
aF729.27
aF696.303
aF717.282
aF729.27
aF690.309
aF729.075
aF729.27
aF701.298
aF712.287
aF729.27
aF729.27
aF730.269
aF695.304
aF729.23
aF730.269
asS'time'
p9
F37807.12438797951
sF0.2
(lp10
F730.269
aF705.294
aF713.286
aF712.287
aF718.281
aF691.308
aF729.27
aF696.303
aF717.282
aF729.27
aF690.309
aF651.348
aF729.27
aF701.298
aF712.287
aF729.27
aF729.27
aF730.269
aF695.304
aF649.35
aF730.269
asF0.025
(lp11
F730.269
aF729.856
aF713.286
aF712.287
aF718.281
aF729.175
aF729.27
aF727.225
aF717.282
aF729.27
aF729.134
aF729.175
aF729.27
aF729.228
aF712.287
aF729.27
aF729.27
aF730.269
aF729.219
aF729.23
aF730.269
as.