(dp0
S'LongMethod'
p1
(lp2
F0.3
aF0.3
aF0.314
aF0.314
aF0.331
aF0.354
aF0.354
aF0.362
aF0.362
aF0.362
aF0.368
aF0.371
aF0.371
aF0.395
aF0.395
aF0.412
aF0.412
aF0.44
aF0.44
aF0.44
aF0.484
asS'DataClass'
p3
(lp4
F0.211
aF0.257
aF0.263
aF0.263
aF0.301
aF0.301
aF0.301
aF0.302
aF0.335
aF0.335
aF0.389
aF0.392
aF0.395
aF0.395
aF0.395
aF0.395
aF0.395
aF0.458
aF0.458
aF0.484
aF0.498
asS'GodClass'
p5
(lp6
F0.03
aF0.03
aF0.03
aF0.03
aF0.03
aF0.03
aF0.03
aF0.03
aF0.03
aF0.03
aF0.03
aF0.059
aF0.059
aF0.059
aF0.059
aF0.059
aF0.059
aF0.059
aF0.101
aF0.122
aF0.154
asS'FeatureEnvy'
p7
(lp8
F0.0
aF0.0
aF0.0
aF0.0
aF0.0
aF0.0
aF0.0
aF0.0
aF0.0
aF0.0
aF0.0
aF0.0
aF0.05
aF0.071
aF0.071
aF0.094
aF0.096
aF0.096
aF0.096
aF0.096
aF0.134
as.