(dp0
S'settings'
p1
(dp2
I0
(lp3
sI1
(lp4
sI2
(lp5
sI3
(lp6
sI4
(lp7
sI5
(lp8
sI6
(lp9
sI7
(lp10
sI8
(lp11
sI9
(lp12
sI10
(lp13
sI11
(lp14
sI12
(lp15
sI13
(lp16
sI14
(lp17
sI15
(lp18
sI16
(lp19
sI17
(lp20
sI18
(lp21
sI19
(lp22
sI20
(lp23
sI21
(lp24
sI22
(lp25
sI23
(lp26
sI24
(lp27
sI25
(lp28
sI26
(lp29
sI27
(lp30
sI28
(lp31
sI29
(lp32
sI30
(lp33
sI31
(lp34
sI32
(lp35
sI33
(lp36
sI34
(lp37
sI35
(lp38
sI36
(lp39
sI37
(lp40
sI38
(lp41
sI39
(lp42
sI40
(lp43
sI41
(lp44
sI42
(lp45
sI43
(lp46
sI44
(lp47
sI45
(lp48
sI46
(lp49
sI47
(lp50
sI48
(lp51
sI49
(lp52
sI50
(lp53
sI51
(lp54
sI52
(lp55
sI53
(lp56
sI54
(lp57
sI55
(lp58
sI56
(lp59
sI57
(lp60
sI58
(lp61
sI59
(lp62
sI60
(lp63
sI61
(lp64
sI62
(lp65
sI63
(lp66
sI64
(lp67
sI65
(lp68
sI66
(lp69
sI67
(lp70
sI68
(lp71
sI69
(lp72
sI70
(lp73
sI71
(lp74
sI72
(lp75
sI73
(lp76
sI74
(lp77
sI75
(lp78
sI76
(lp79
sI77
(lp80
sI78
(lp81
sI79
(lp82
sI80
(lp83
sI81
(lp84
sI82
(lp85
sI83
(lp86
sI84
(lp87
sI85
(lp88
sI86
(lp89
sI87
(lp90
sI88
(lp91
sI89
(lp92
sI90
(lp93
sI91
(lp94
sI92
(lp95
sI93
(lp96
sI94
(lp97
sI95
(lp98
sI96
(lp99
sI97
(lp100
sI98
(lp101
sI99
(lp102
ssS'counter_full'
p103
(dp104
F0.1
(dp105
I0
(lp106
F0.419
aF0.46
aF0.541
aF0.814
aF0.409
aF0.543
aF0.814
aF0.814
aF0.814
aF0.468
aF0.496
asI1
(lp107
F0.419
aF0.46
aF0.418
aF0.396
aF0.409
aF0.399
aF0.439
aF0.408
aF0.439
aF0.468
aF0.496
asI2
(lp108
F0.419
aF0.46
aF0.418
aF0.396
aF0.409
aF0.399
aF0.439
aF0.408
aF0.439
aF0.468
aF0.496
asI3
(lp109
F0.419
aF0.46
aF0.418
aF0.396
aF0.409
aF0.399
aF0.439
aF0.408
aF0.334
aF0.366
aF0.496
asI4
(lp110
F0.419
aF0.46
aF0.418
aF0.396
aF0.409
aF0.399
aF0.439
aF0.408
aF0.334
aF0.366
aF0.496
asI5
(lp111
F0.419
aF0.46
aF0.418
aF0.396
aF0.409
aF0.399
aF0.439
aF0.408
aF0.334
aF0.366
aF0.496
asI6
(lp112
F0.419
aF0.46
aF0.418
aF0.396
aF0.409
aF0.399
aF0.439
aF0.408
aF0.334
aF0.366
aF0.496
asI7
(lp113
F0.419
aF0.46
aF0.418
aF0.396
aF0.409
aF0.399
aF0.439
aF0.408
aF0.334
aF0.366
aF0.496
asI8
(lp114
F0.301
aF0.46
aF0.418
aF0.396
aF0.409
aF0.399
aF0.439
aF0.408
aF0.334
aF0.366
aF0.496
asI9
(lp115
F0.301
aF0.46
aF0.418
aF0.396
aF0.409
aF0.399
aF0.439
aF0.408
aF0.334
aF0.366
aF0.496
asI10
(lp116
F0.301
aF0.46
aF0.418
aF0.396
aF0.409
aF0.399
aF0.439
aF0.408
aF0.334
aF0.366
aF0.496
asI11
(lp117
F0.301
aF0.46
aF0.418
aF0.396
aF0.409
aF0.399
aF0.439
aF0.408
aF0.334
aF0.366
aF0.356
asI12
(lp118
F0.301
aF0.46
aF0.418
aF0.396
aF0.409
aF0.399
aF0.439
aF0.408
aF0.334
aF0.366
aF0.356
asI13
(lp119
F0.301
aF0.46
aF0.418
aF0.396
aF0.409
aF0.399
aF0.439
aF0.408
aF0.334
aF0.366
aF0.356
asI14
(lp120
F0.301
aF0.46
aF0.418
aF0.396
aF0.409
aF0.399
aF0.439
aF0.408
aF0.334
aF0.366
aF0.356
asI15
(lp121
F0.301
aF0.46
aF0.418
aF0.396
aF0.409
aF0.399
aF0.439
aF0.408
aF0.334
aF0.366
aF0.356
asI16
(lp122
F0.301
aF0.46
aF0.418
aF0.396
aF0.409
aF0.399
aF0.439
aF0.408
aF0.334
aF0.366
aF0.356
asI17
(lp123
F0.301
aF0.46
aF0.418
aF0.396
aF0.409
aF0.399
aF0.439
aF0.408
aF0.334
aF0.366
aF0.356
asI18
(lp124
F0.301
aF0.46
aF0.418
aF0.396
aF0.409
aF0.399
aF0.439
aF0.408
aF0.334
aF0.366
aF0.356
asI19
(lp125
F0.301
aF0.46
aF0.418
aF0.396
aF0.409
aF0.399
aF0.439
aF0.408
aF0.334
aF0.366
aF0.356
asI20
(lp126
F0.301
aF0.46
aF0.418
aF0.396
aF0.409
aF0.399
aF0.439
aF0.408
aF0.334
aF0.366
aF0.356
asI21
(lp127
F0.301
aF0.46
aF0.418
aF0.396
aF0.409
aF0.399
aF0.439
aF0.408
aF0.334
aF0.366
aF0.356
asI22
(lp128
F0.301
aF0.46
aF0.418
aF0.396
aF0.409
aF0.399
aF0.439
aF0.408
aF0.334
aF0.366
aF0.356
asI23
(lp129
F0.301
aF0.46
aF0.418
aF0.396
aF0.409
aF0.399
aF0.439
aF0.408
aF0.334
aF0.366
aF0.356
asI24
(lp130
F0.301
aF0.46
aF0.418
aF0.396
aF0.409
aF0.399
aF0.439
aF0.408
aF0.334
aF0.366
aF0.356
asI25
(lp131
F0.301
aF0.46
aF0.418
aF0.396
aF0.409
aF0.399
aF0.439
aF0.408
aF0.334
aF0.366
aF0.356
asI26
(lp132
F0.301
aF0.46
aF0.418
aF0.396
aF0.409
aF0.399
aF0.439
aF0.408
aF0.334
aF0.366
aF0.356
asI27
(lp133
F0.301
aF0.46
aF0.418
aF0.396
aF0.409
aF0.399
aF0.439
aF0.408
aF0.334
aF0.366
aF0.356
asI28
(lp134
F0.301
aF0.46
aF0.418
aF0.396
aF0.409
aF0.399
aF0.439
aF0.408
aF0.334
aF0.366
aF0.356
asI29
(lp135
F0.301
aF0.46
aF0.418
aF0.396
aF0.409
aF0.399
aF0.439
aF0.408
aF0.334
aF0.366
aF0.356
asI30
(lp136
F0.301
aF0.46
aF0.418
aF0.396
aF0.409
aF0.399
aF0.439
aF0.408
aF0.334
aF0.366
aF0.356
asI31
(lp137
F0.301
aF0.46
aF0.418
aF0.396
aF0.409
aF0.399
aF0.439
aF0.408
aF0.334
aF0.366
aF0.356
asI32
(lp138
F0.301
aF0.46
aF0.418
aF0.396
aF0.409
aF0.399
aF0.439
aF0.408
aF0.334
aF0.366
aF0.356
asI33
(lp139
F0.301
aF0.46
aF0.418
aF0.396
aF0.409
aF0.399
aF0.439
aF0.408
aF0.334
aF0.366
aF0.356
asI34
(lp140
F0.301
aF0.46
aF0.418
aF0.396
aF0.409
aF0.399
aF0.439
aF0.408
aF0.334
aF0.366
aF0.356
asI35
(lp141
F0.301
aF0.358
aF0.418
aF0.396
aF0.409
aF0.399
aF0.439
aF0.408
aF0.334
aF0.366
aF0.356
asI36
(lp142
F0.301
aF0.358
aF0.418
aF0.396
aF0.409
aF0.399
aF0.439
aF0.408
aF0.334
aF0.366
aF0.356
asI37
(lp143
F0.301
aF0.358
aF0.418
aF0.396
aF0.409
aF0.399
aF0.439
aF0.408
aF0.334
aF0.366
aF0.356
asI38
(lp144
F0.301
aF0.358
aF0.418
aF0.396
aF0.409
aF0.399
aF0.439
aF0.408
aF0.334
aF0.366
aF0.356
asI39
(lp145
F0.301
aF0.358
aF0.418
aF0.396
aF0.409
aF0.399
aF0.439
aF0.408
aF0.334
aF0.366
aF0.356
asI40
(lp146
F0.301
aF0.358
aF0.418
aF0.396
aF0.409
aF0.399
aF0.439
aF0.408
aF0.334
aF0.366
aF0.356
asI41
(lp147
F0.301
aF0.358
aF0.418
aF0.396
aF0.409
aF0.399
aF0.439
aF0.408
aF0.334
aF0.366
aF0.356
asI42
(lp148
F0.301
aF0.358
aF0.418
aF0.396
aF0.409
aF0.399
aF0.439
aF0.408
aF0.334
aF0.366
aF0.356
asI43
(lp149
F0.301
aF0.358
aF0.418
aF0.396
aF0.409
aF0.399
aF0.439
aF0.408
aF0.334
aF0.366
aF0.356
asI44
(lp150
F0.301
aF0.358
aF0.418
aF0.396
aF0.409
aF0.399
aF0.439
aF0.408
aF0.334
aF0.366
aF0.356
asI45
(lp151
F0.301
aF0.358
aF0.418
aF0.396
aF0.409
aF0.399
aF0.439
aF0.408
aF0.334
aF0.366
aF0.356
asI46
(lp152
F0.301
aF0.358
aF0.418
aF0.396
aF0.409
aF0.399
aF0.439
aF0.408
aF0.334
aF0.366
aF0.356
asI47
(lp153
F0.301
aF0.358
aF0.418
aF0.396
aF0.409
aF0.399
aF0.439
aF0.408
aF0.334
aF0.366
aF0.356
asI48
(lp154
F0.301
aF0.358
aF0.418
aF0.396
aF0.409
aF0.399
aF0.439
aF0.408
aF0.334
aF0.366
aF0.356
asI49
(lp155
F0.301
aF0.358
aF0.418
aF0.396
aF0.409
aF0.399
aF0.439
aF0.408
aF0.334
aF0.366
aF0.356
asI50
(lp156
F0.301
aF0.358
aF0.418
aF0.396
aF0.409
aF0.399
aF0.439
aF0.408
aF0.334
aF0.366
aF0.356
asI51
(lp157
F0.301
aF0.358
aF0.418
aF0.396
aF0.409
aF0.399
aF0.439
aF0.408
aF0.334
aF0.366
aF0.356
asI52
(lp158
F0.301
aF0.358
aF0.418
aF0.396
aF0.409
aF0.399
aF0.439
aF0.408
aF0.334
aF0.366
aF0.356
asI53
(lp159
F0.301
aF0.358
aF0.418
aF0.396
aF0.409
aF0.399
aF0.439
aF0.408
aF0.334
aF0.366
aF0.356
asI54
(lp160
F0.301
aF0.358
aF0.418
aF0.396
aF0.409
aF0.399
aF0.439
aF0.408
aF0.334
aF0.366
aF0.356
asI55
(lp161
F0.301
aF0.358
aF0.418
aF0.396
aF0.409
aF0.399
aF0.439
aF0.408
aF0.334
aF0.366
aF0.356
asI56
(lp162
F0.301
aF0.358
aF0.418
aF0.396
aF0.409
aF0.399
aF0.439
aF0.408
aF0.334
aF0.366
aF0.356
asI57
(lp163
F0.301
aF0.358
aF0.418
aF0.396
aF0.409
aF0.399
aF0.439
aF0.408
aF0.334
aF0.366
aF0.356
asI58
(lp164
F0.301
aF0.358
aF0.418
aF0.396
aF0.409
aF0.399
aF0.439
aF0.408
aF0.334
aF0.366
aF0.356
asI59
(lp165
F0.301
aF0.358
aF0.418
aF0.396
aF0.409
aF0.399
aF0.439
aF0.408
aF0.334
aF0.366
aF0.356
asI60
(lp166
F0.301
aF0.358
aF0.418
aF0.396
aF0.409
aF0.399
aF0.439
aF0.408
aF0.334
aF0.366
aF0.356
asI61
(lp167
F0.301
aF0.358
aF0.418
aF0.396
aF0.409
aF0.399
aF0.439
aF0.408
aF0.334
aF0.366
aF0.356
asI62
(lp168
F0.301
aF0.358
aF0.418
aF0.396
aF0.409
aF0.399
aF0.439
aF0.408
aF0.334
aF0.366
aF0.356
asI63
(lp169
F0.301
aF0.358
aF0.418
aF0.396
aF0.409
aF0.399
aF0.439
aF0.408
aF0.334
aF0.366
aF0.356
asI64
(lp170
F0.301
aF0.358
aF0.418
aF0.396
aF0.409
aF0.399
aF0.439
aF0.408
aF0.334
aF0.366
aF0.356
asI65
(lp171
F0.301
aF0.358
aF0.418
aF0.396
aF0.409
aF0.399
aF0.439
aF0.408
aF0.334
aF0.366
aF0.356
asI66
(lp172
F0.301
aF0.358
aF0.418
aF0.396
aF0.409
aF0.399
aF0.439
aF0.408
aF0.334
aF0.366
aF0.356
asI67
(lp173
F0.301
aF0.358
aF0.418
aF0.396
aF0.409
aF0.399
aF0.439
aF0.408
aF0.334
aF0.366
aF0.356
asI68
(lp174
F0.301
aF0.358
aF0.418
aF0.396
aF0.409
aF0.399
aF0.439
aF0.408
aF0.334
aF0.366
aF0.356
asI69
(lp175
F0.301
aF0.358
aF0.418
aF0.396
aF0.409
aF0.399
aF0.439
aF0.408
aF0.334
aF0.366
aF0.356
asI70
(lp176
F0.301
aF0.358
aF0.418
aF0.396
aF0.409
aF0.399
aF0.439
aF0.408
aF0.334
aF0.366
aF0.356
asI71
(lp177
F0.301
aF0.358
aF0.418
aF0.396
aF0.409
aF0.399
aF0.439
aF0.408
aF0.334
aF0.366
aF0.356
asI72
(lp178
F0.301
aF0.358
aF0.418
aF0.396
aF0.409
aF0.399
aF0.439
aF0.408
aF0.334
aF0.366
aF0.356
asI73
(lp179
F0.301
aF0.358
aF0.418
aF0.396
aF0.409
aF0.399
aF0.439
aF0.408
aF0.334
aF0.366
aF0.356
asI74
(lp180
F0.301
aF0.358
aF0.418
aF0.396
aF0.409
aF0.399
aF0.439
aF0.408
aF0.334
aF0.366
aF0.356
asI75
(lp181
F0.301
aF0.358
aF0.418
aF0.396
aF0.409
aF0.399
aF0.439
aF0.408
aF0.334
aF0.366
aF0.356
asI76
(lp182
F0.301
aF0.358
aF0.418
aF0.396
aF0.409
aF0.399
aF0.439
aF0.408
aF0.334
aF0.366
aF0.356
asI77
(lp183
F0.301
aF0.358
aF0.418
aF0.396
aF0.409
aF0.399
aF0.439
aF0.408
aF0.334
aF0.366
aF0.356
asI78
(lp184
F0.301
aF0.358
aF0.418
aF0.396
aF0.409
aF0.399
aF0.439
aF0.408
aF0.334
aF0.366
aF0.356
asI79
(lp185
F0.301
aF0.358
aF0.418
aF0.396
aF0.409
aF0.399
aF0.439
aF0.408
aF0.334
aF0.366
aF0.356
asI80
(lp186
F0.301
aF0.358
aF0.418
aF0.396
aF0.409
aF0.399
aF0.439
aF0.408
aF0.334
aF0.366
aF0.356
asI81
(lp187
F0.301
aF0.358
aF0.418
aF0.396
aF0.409
aF0.399
aF0.439
aF0.408
aF0.334
aF0.366
aF0.356
asI82
(lp188
F0.301
aF0.358
aF0.418
aF0.396
aF0.409
aF0.399
aF0.439
aF0.408
aF0.334
aF0.366
aF0.356
asI83
(lp189
F0.301
aF0.358
aF0.418
aF0.396
aF0.409
aF0.399
aF0.439
aF0.408
aF0.334
aF0.366
aF0.356
asI84
(lp190
F0.301
aF0.358
aF0.418
aF0.396
aF0.409
aF0.399
aF0.439
aF0.408
aF0.334
aF0.366
aF0.356
asI85
(lp191
F0.301
aF0.358
aF0.418
aF0.396
aF0.409
aF0.399
aF0.439
aF0.408
aF0.334
aF0.366
aF0.356
asI86
(lp192
F0.301
aF0.358
aF0.418
aF0.396
aF0.409
aF0.399
aF0.439
aF0.408
aF0.334
aF0.366
aF0.356
asI87
(lp193
F0.301
aF0.358
aF0.418
aF0.396
aF0.409
aF0.399
aF0.439
aF0.408
aF0.334
aF0.366
aF0.356
asI88
(lp194
F0.301
aF0.358
aF0.418
aF0.396
aF0.409
aF0.399
aF0.439
aF0.408
aF0.334
aF0.366
aF0.356
asI89
(lp195
F0.301
aF0.358
aF0.418
aF0.396
aF0.409
aF0.399
aF0.439
aF0.408
aF0.334
aF0.366
aF0.356
asI90
(lp196
F0.301
aF0.358
aF0.418
aF0.396
aF0.409
aF0.399
aF0.439
aF0.408
aF0.334
aF0.366
aF0.356
asI91
(lp197
F0.301
aF0.358
aF0.418
aF0.396
aF0.409
aF0.399
aF0.439
aF0.408
aF0.334
aF0.366
aF0.356
asI92
(lp198
F0.301
aF0.358
aF0.418
aF0.396
aF0.409
aF0.399
aF0.439
aF0.408
aF0.334
aF0.366
aF0.356
asI93
(lp199
F0.301
aF0.358
aF0.418
aF0.396
aF0.409
aF0.399
aF0.439
aF0.408
aF0.334
aF0.366
aF0.356
asI94
(lp200
F0.301
aF0.358
aF0.418
aF0.396
aF0.409
aF0.399
aF0.439
aF0.408
aF0.334
aF0.366
aF0.356
asI95
(lp201
F0.301
aF0.358
aF0.418
aF0.396
aF0.409
aF0.399
aF0.439
aF0.408
aF0.334
aF0.366
aF0.356
asI96
(lp202
F0.301
aF0.358
aF0.418
aF0.396
aF0.409
aF0.399
aF0.439
aF0.408
aF0.334
aF0.366
aF0.356
asI97
(lp203
F0.301
aF0.358
aF0.418
aF0.396
aF0.409
aF0.399
aF0.439
aF0.408
aF0.334
aF0.366
aF0.356
asI98
(lp204
F0.301
aF0.358
aF0.418
aF0.396
aF0.409
aF0.399
aF0.439
aF0.408
aF0.334
aF0.366
aF0.356
asI99
(lp205
F0.301
aF0.358
aF0.418
aF0.396
aF0.409
aF0.399
aF0.439
aF0.408
aF0.334
aF0.366
aF0.356
asssS'temp'
p206
(dp207
F0.1
(dp208
I0
F0.496
sI1
F0.496
sI2
F0.496
sI3
F0.496
sI4
F0.496
sI5
F0.496
sI6
F0.496
sI7
F0.496
sI8
F0.496
sI9
F0.496
sI10
F0.496
sI11
F0.356
sI12
F0.356
sI13
F0.356
sI14
F0.356
sI15
F0.356
sI16
F0.356
sI17
F0.356
sI18
F0.356
sI19
F0.356
sI20
F0.356
sI21
F0.356
sI22
F0.356
sI23
F0.356
sI24
F0.356
sI25
F0.356
sI26
F0.356
sI27
F0.356
sI28
F0.356
sI29
F0.356
sI30
F0.356
sI31
F0.356
sI32
F0.356
sI33
F0.356
sI34
F0.356
sI35
F0.356
sI36
F0.356
sI37
F0.356
sI38
F0.356
sI39
F0.356
sI40
F0.356
sI41
F0.356
sI42
F0.356
sI43
F0.356
sI44
F0.356
sI45
F0.356
sI46
F0.356
sI47
F0.356
sI48
F0.356
sI49
F0.356
sI50
F0.356
sI51
F0.356
sI52
F0.356
sI53
F0.356
sI54
F0.356
sI55
F0.356
sI56
F0.356
sI57
F0.356
sI58
F0.356
sI59
F0.356
sI60
F0.356
sI61
F0.356
sI62
F0.356
sI63
F0.356
sI64
F0.356
sI65
F0.356
sI66
F0.356
sI67
F0.356
sI68
F0.356
sI69
F0.356
sI70
F0.356
sI71
F0.356
sI72
F0.356
sI73
F0.356
sI74
F0.356
sI75
F0.356
sI76
F0.356
sI77
F0.356
sI78
F0.356
sI79
F0.356
sI80
F0.356
sI81
F0.356
sI82
F0.356
sI83
F0.356
sI84
F0.356
sI85
F0.356
sI86
F0.356
sI87
F0.356
sI88
F0.356
sI89
F0.356
sI90
F0.356
sI91
F0.356
sI92
F0.356
sI93
F0.356
sI94
F0.356
sI95
F0.356
sI96
F0.356
sI97
F0.356
sI98
F0.356
sI99
F0.356
sssF0.1
(lp209
F30.684
aF38.961
aF41.444
aF39.413
aF40.491
aF39.573
aF43.648
aF40.595
aF33.516
aF36.489
aF36.714
asS'time'
p210
F19859.07354903221
s.