(dp0
S'settings'
p1
(dp2
I0
(lp3
S'398_4_None_TfidfVectorizer|no_transformation|0.373399454674_entropy_best_DecisionTreeClassifier'
p4
aS'29_0.86707949569_0.473061682497_0.784604228389_26.3572848571_180_LatentDirichletAllocation|no_transformation|l2_0.01898_44_LogisticRegression'
p5
aS'16_0.0745148625776_0.687807325809_0.530308909391_25.5139799254_150_LatentDirichletAllocation|no_transformation|18_uniform_minkowski_14_KNeighborsClassifier'
p6
aS'307_3_CountVectorizer|no_transformation|l1_0.08819_216_LogisticRegression'
p7
aS'27_0.928828585072_0.595060434603_0.70759008776_8.79999454845_150_LatentDirichletAllocation|no_transformation|l2_0.05324_3_LogisticRegression'
p8
aS'23_0.331865323612_0.981874360771_0.955057793972_46.5020799993_300_LatentDirichletAllocation|no_transformation|0.503161299738_gini_best_DecisionTreeClassifier'
p9
aS'18_0.558232660882_0.148046164403_0.932019570709_9.77750820476_250_LatentDirichletAllocation|no_transformation|l1_0.06428_174_LogisticRegression'
p10
aS'637_1_None_TfidfVectorizer|no_transformation|l1_0.05854_3_LogisticRegression'
p11
aS'290_2_l2_TfidfVectorizer|no_transformation|131_gini_0.42682_RandomForestClassifier'
p12
aS'978_9_l1_TfidfVectorizer|no_transformation|l2_0.0785_325_LogisticRegression'
p13
aS'20_0.629082788919_0.859042458183_0.657215519376_3.51190171969_210_LatentDirichletAllocation|no_transformation|20_distance_chebyshev_2_KNeighborsClassifier'
p14
asI1
(lp15
S'872_10_l1_TfidfVectorizer|no_transformation|13_distance_minkowski_2_KNeighborsClassifier'
p16
aS'2000_l2_HashingVectorizer|no_transformation|l2_0.07883_271_LogisticRegression'
p17
aS'669_9_CountVectorizer|no_transformation|57_entropy_0.36232_RandomForestClassifier'
p18
aS'313_7_l2_TfidfVectorizer|no_transformation|117_entropy_0.96496_RandomForestClassifier'
p19
aS'43_0.352681616129_0.14420367136_0.867911449167_20.1395673129_210_LatentDirichletAllocation|no_transformation|0.499444243221_entropy_random_DecisionTreeClassifier'
p20
aS'695_2_CountVectorizer|no_transformation|10_uniform_chebyshev_2_KNeighborsClassifier'
p21
aS'234_1_None_TfidfVectorizer|no_transformation|25_distance_chebyshev_2_KNeighborsClassifier'
p22
aS'21_0.665112497122_0.993772116148_0.746398158736_5.63019231619_300_LatentDirichletAllocation|no_transformation|118_gini_0.21131_RandomForestClassifier'
p23
aS'37_0.446394834774_0.984404349742_0.973266672875_32.2723183781_300_LatentDirichletAllocation|no_transformation|0.627674273144_gini_random_DecisionTreeClassifier'
p24
aS'771_10_None_TfidfVectorizer|no_transformation|59_entropy_0.8567_RandomForestClassifier'
p25
aS'555_9_CountVectorizer|no_transformation|GaussianNB'
p26
asI2
(lp27
S'595_2_None_TfidfVectorizer|no_transformation|l1_0.08623_492_LogisticRegression'
p28
aS'974_1_CountVectorizer|no_transformation|6_distance_minkowski_13_KNeighborsClassifier'
p29
aS'16_0.737871030269_0.928182265691_0.514653215753_34.1822456044_210_LatentDirichletAllocation|no_transformation|l1_0.0386_362_LogisticRegression'
p30
aS'2000_l1_HashingVectorizer|no_transformation|l2_0.00546_55_LogisticRegression'
p31
aS'443_8_CountVectorizer|no_transformation|117_entropy_0.32723_RandomForestClassifier'
p32
aS'30_0.467904039555_0.984247560009_0.998364826137_2.00710995881_210_LatentDirichletAllocation|no_transformation|l2_0.0941_493_LogisticRegression'
p33
aS'4000_l1_HashingVectorizer|no_transformation|0.0477250340777_gini_random_DecisionTreeClassifier'
p34
aS'692_5_CountVectorizer|no_transformation|61_entropy_0.33712_RandomForestClassifier'
p35
aS'861_7_CountVectorizer|no_transformation|103_gini_0.43234_RandomForestClassifier'
p36
aS'344_6_None_TfidfVectorizer|no_transformation|l1_0.05567_442_LogisticRegression'
p37
aS'21_0.259494621489_0.19067451142_0.665497658764_36.1874019921_150_LatentDirichletAllocation|no_transformation|92_entropy_0.70161_RandomForestClassifier'
p38
asI3
(lp39
S'707_7_CountVectorizer|no_transformation|0.169769880966_gini_random_DecisionTreeClassifier'
p40
aS'28_0.32983620703_0.889075517641_0.938814213435_17.7196219595_300_LatentDirichletAllocation|no_transformation|143_gini_0.90514_RandomForestClassifier'
p41
aS'6000_l2_HashingVectorizer|no_transformation|136_entropy_0.0575_RandomForestClassifier'
p42
aS'41_0.426522811491_0.403421882196_0.855588294707_29.2648328644_210_LatentDirichletAllocation|no_transformation|136_entropy_0.2124_RandomForestClassifier'
p43
aS'28_0.785980396327_0.287124693499_0.84746191306_40.5504315657_210_LatentDirichletAllocation|no_transformation|108_entropy_0.95203_RandomForestClassifier'
p44
aS'36_0.00684792691477_0.11289481107_0.621108515771_40.7697214583_210_LatentDirichletAllocation|no_transformation|0.365608926366_gini_random_DecisionTreeClassifier'
p45
aS'16_0.21075539028_0.893654594152_0.681544531885_42.144268175_210_LatentDirichletAllocation|no_transformation|14_distance_minkowski_13_KNeighborsClassifier'
p46
aS'668_4_CountVectorizer|no_transformation|l2_0.08413_238_LogisticRegression'
p47
aS'724_9_l1_TfidfVectorizer|no_transformation|72_entropy_0.4969_RandomForestClassifier'
p48
aS'31_0.602267611376_0.737928506821_0.630237192104_35.9537211504_210_LatentDirichletAllocation|no_transformation|64_entropy_0.95436_RandomForestClassifier'
p49
aS'22_0.27658619373_0.0651570113011_0.898068250408_18.0637267231_180_LatentDirichletAllocation|no_transformation|0.327160014044_entropy_random_DecisionTreeClassifier'
p50
asI4
(lp51
S'238_4_l1_TfidfVectorizer|no_transformation|134_entropy_0.1966_RandomForestClassifier'
p52
aS'47_0.261480905429_0.452901756203_0.966901050261_31.580716453_250_LatentDirichletAllocation|no_transformation|144_gini_0.83402_RandomForestClassifier'
p53
aS'40_0.401766197699_0.466444424176_0.599263498739_43.2973977981_180_LatentDirichletAllocation|no_transformation|56_gini_0.76653_RandomForestClassifier'
p54
aS'332_9_CountVectorizer|no_transformation|l2_0.00431_28_LogisticRegression'
p55
aS'10_0.755565791283_0.313454886799_0.72927679138_16.4124377771_300_LatentDirichletAllocation|no_transformation|0.866352902314_gini_random_DecisionTreeClassifier'
p56
aS'516_10_CountVectorizer|no_transformation|3_distance_minkowski_7_KNeighborsClassifier'
p57
aS'19_0.661338915198_0.706975637135_0.938080188934_49.8001458127_300_LatentDirichletAllocation|no_transformation|0.260232343855_gini_random_DecisionTreeClassifier'
p58
aS'48_0.662142263365_0.995512390476_0.534645191555_35.173828894_300_LatentDirichletAllocation|no_transformation|78_entropy_0.75093_RandomForestClassifier'
p59
aS'695_1_l1_TfidfVectorizer|no_transformation|l2_0.00281_156_LogisticRegression'
p60
aS'18_0.649057930765_0.646480629388_0.625692103243_4.97058865707_300_LatentDirichletAllocation|no_transformation|88_gini_0.39003_RandomForestClassifier'
p61
aS'400_7_CountVectorizer|no_transformation|0.765928545591_entropy_best_DecisionTreeClassifier'
p62
asI5
(lp63
S'13_0.737665983712_0.348954185835_0.586271091186_31.8413112671_180_LatentDirichletAllocation|no_transformation|l2_0.09491_21_LogisticRegression'
p64
aS'10_0.623949905631_0.734729277476_0.906654752348_2.93141197867_150_LatentDirichletAllocation|no_transformation|l2_0.08194_417_LogisticRegression'
p65
aS'8000_None_HashingVectorizer|no_transformation|5_uniform_minkowski_9_KNeighborsClassifier'
p66
aS'127_5_l1_TfidfVectorizer|no_transformation|3_distance_minkowski_10_KNeighborsClassifier'
p67
aS'8000_l2_HashingVectorizer|no_transformation|0.453430030182_entropy_best_DecisionTreeClassifier'
p68
aS'16_0.153943713493_0.565208874388_0.850218564962_1.10539926039_300_LatentDirichletAllocation|no_transformation|21_uniform_chebyshev_2_KNeighborsClassifier'
p69
aS'995_5_l1_TfidfVectorizer|no_transformation|143_entropy_0.5563_RandomForestClassifier'
p70
aS'36_0.806289423356_0.787649137662_0.700445094111_20.1375552388_210_LatentDirichletAllocation|no_transformation|10_uniform_minkowski_8_KNeighborsClassifier'
p71
aS'34_0.628876847152_0.00770095353666_0.975262520241_34.3933897196_210_LatentDirichletAllocation|no_transformation|63_entropy_0.05501_RandomForestClassifier'
p72
aS'234_5_l2_TfidfVectorizer|no_transformation|79_entropy_0.51368_RandomForestClassifier'
p73
aS'16_0.263751795808_0.187365237303_0.584674401103_13.9624479236_150_LatentDirichletAllocation|no_transformation|l1_0.06779_256_LogisticRegression'
p74
asI6
(lp75
S'876_8_CountVectorizer|no_transformation|l2_0.09707_485_LogisticRegression'
p76
aS'24_0.979193519813_0.409788129436_0.516402883522_6.90845495953_300_LatentDirichletAllocation|no_transformation|97_entropy_0.58728_RandomForestClassifier'
p77
aS'19_0.860761322725_0.81539418829_0.88712028444_46.2163545788_300_LatentDirichletAllocation|no_transformation|0.539954021134_entropy_best_DecisionTreeClassifier'
p78
aS'12_0.510599092076_0.154062023114_0.767832621903_22.2540945086_210_LatentDirichletAllocation|no_transformation|125_gini_0.93548_RandomForestClassifier'
p79
aS'29_0.466686928544_0.419973885249_0.79697267_47.8719974759_250_LatentDirichletAllocation|no_transformation|0.781182859735_gini_random_DecisionTreeClassifier'
p80
aS'33_0.528223800939_0.808795762894_0.563777645978_48.4742904617_180_LatentDirichletAllocation|no_transformation|57_entropy_0.06151_RandomForestClassifier'
p81
aS'42_0.0522808687171_0.301791520773_0.557507707509_29.5701152349_210_LatentDirichletAllocation|no_transformation|l2_0.07813_244_LogisticRegression'
p82
aS'30_0.884850999688_0.513017329783_0.655275988526_9.91301958472_250_LatentDirichletAllocation|no_transformation|l2_0.0196_265_LogisticRegression'
p83
aS'42_0.94174944177_0.632156695332_0.777204751435_39.961407401_300_LatentDirichletAllocation|no_transformation|67_gini_0.25109_RandomForestClassifier'
p84
aS'460_10_CountVectorizer|no_transformation|131_gini_0.71056_RandomForestClassifier'
p85
aS'48_0.154599032567_0.0141461251614_0.686280203852_11.698846818_250_LatentDirichletAllocation|no_transformation|0.400368593981_gini_best_DecisionTreeClassifier'
p86
asI7
(lp87
S'21_0.535783372553_0.268109108081_0.713120853685_34.8823006075_250_LatentDirichletAllocation|no_transformation|6_distance_minkowski_8_KNeighborsClassifier'
p88
aS'611_4_l1_TfidfVectorizer|no_transformation|99_gini_0.41377_RandomForestClassifier'
p89
aS'21_0.995894880316_0.135386569214_0.575686238539_16.7724839643_180_LatentDirichletAllocation|no_transformation|2_uniform_chebyshev_2_KNeighborsClassifier'
p90
aS'933_10_CountVectorizer|no_transformation|0.128994808114_gini_best_DecisionTreeClassifier'
p91
aS'871_4_l1_TfidfVectorizer|no_transformation|106_entropy_0.94759_RandomForestClassifier'
p92
aS'10000_l1_HashingVectorizer|no_transformation|104_entropy_0.82454_RandomForestClassifier'
p93
aS'888_2_l2_TfidfVectorizer|no_transformation|l1_0.00649_325_LogisticRegression'
p94
aS'218_2_l2_TfidfVectorizer|no_transformation|18_distance_chebyshev_2_KNeighborsClassifier'
p95
aS'442_4_CountVectorizer|no_transformation|66_gini_0.01157_RandomForestClassifier'
p96
aS'47_0.0273458205432_0.610544985169_0.85357392721_29.3468774431_210_LatentDirichletAllocation|no_transformation|l2_0.01552_365_LogisticRegression'
p97
aS'49_0.590449635193_0.290414602011_0.513765750623_10.8406977565_150_LatentDirichletAllocation|no_transformation|3_distance_minkowski_11_KNeighborsClassifier'
p98
asI8
(lp99
S'808_10_l1_TfidfVectorizer|no_transformation|96_entropy_0.38824_RandomForestClassifier'
p100
aS'249_3_CountVectorizer|no_transformation|115_entropy_0.37408_RandomForestClassifier'
p101
aS'814_7_CountVectorizer|no_transformation|l1_0.0918_236_LogisticRegression'
p102
aS'671_1_None_TfidfVectorizer|no_transformation|l1_0.05324_103_LogisticRegression'
p103
aS'369_2_l1_TfidfVectorizer|no_transformation|85_entropy_0.86937_RandomForestClassifier'
p104
aS'31_0.348225667103_0.249723689461_0.708782478245_47.9962852709_150_LatentDirichletAllocation|no_transformation|l2_0.05071_144_LogisticRegression'
p105
aS'39_0.874283041513_0.760254932501_0.780138895617_9.79668651063_210_LatentDirichletAllocation|no_transformation|l2_0.06197_309_LogisticRegression'
p106
aS'970_6_CountVectorizer|no_transformation|16_distance_chebyshev_2_KNeighborsClassifier'
p107
aS'24_0.674846041952_0.78155257222_0.567916134045_20.4077907183_180_LatentDirichletAllocation|no_transformation|l2_0.02349_379_LogisticRegression'
p108
aS'30_0.0452857471991_0.709528915993_0.715774924386_31.4133763942_300_LatentDirichletAllocation|no_transformation|l2_0.00326_199_LogisticRegression'
p109
aS'673_5_None_TfidfVectorizer|no_transformation|0.215514846484_gini_best_DecisionTreeClassifier'
p110
asI9
(lp111
S'26_0.657362778255_0.728544988441_0.826800513027_37.6831724548_180_LatentDirichletAllocation|no_transformation|121_entropy_0.65427_RandomForestClassifier'
p112
aS'471_2_l2_TfidfVectorizer|no_transformation|0.663162051046_gini_random_DecisionTreeClassifier'
p113
aS'699_4_l1_TfidfVectorizer|no_transformation|l1_0.06921_137_LogisticRegression'
p114
aS'345_5_l2_TfidfVectorizer|no_transformation|103_entropy_0.82831_RandomForestClassifier'
p115
aS'488_2_CountVectorizer|no_transformation|l1_0.03673_399_LogisticRegression'
p116
aS'699_10_CountVectorizer|no_transformation|148_gini_0.16258_RandomForestClassifier'
p117
aS'6000_l1_HashingVectorizer|no_transformation|144_entropy_0.89084_RandomForestClassifier'
p118
aS'283_1_None_TfidfVectorizer|no_transformation|66_entropy_0.481_RandomForestClassifier'
p119
aS'481_7_None_TfidfVectorizer|no_transformation|0.052949331546_entropy_random_DecisionTreeClassifier'
p120
aS'4000_None_HashingVectorizer|no_transformation|l1_0.0606_20_LogisticRegression'
p121
aS'975_8_CountVectorizer|no_transformation|0.500036129348_gini_random_DecisionTreeClassifier'
p122
asI10
(lp123
S'37_0.107908036446_0.368749001744_0.987355840582_3.38556774852_250_LatentDirichletAllocation|no_transformation|l2_0.00395_36_LogisticRegression'
p124
aS'561_5_l1_TfidfVectorizer|no_transformation|0.102775557508_gini_random_DecisionTreeClassifier'
p125
aS'919_9_l1_TfidfVectorizer|no_transformation|l2_0.05252_329_LogisticRegression'
p126
aS'24_0.851138264073_0.719054971972_0.729855318622_24.2861505947_250_LatentDirichletAllocation|no_transformation|0.887623622002_entropy_random_DecisionTreeClassifier'
p127
aS'576_6_CountVectorizer|no_transformation|117_entropy_0.60601_RandomForestClassifier'
p128
aS'4000_l1_HashingVectorizer|no_transformation|l2_0.04381_432_LogisticRegression'
p129
aS'686_10_None_TfidfVectorizer|no_transformation|l2_0.02459_402_LogisticRegression'
p130
aS'955_9_CountVectorizer|no_transformation|l1_0.057_428_LogisticRegression'
p131
aS'389_8_CountVectorizer|no_transformation|0.0874453879927_gini_random_DecisionTreeClassifier'
p132
aS'17_0.389718064245_0.957881185774_0.962713945204_44.9802879845_180_LatentDirichletAllocation|no_transformation|8_uniform_minkowski_11_KNeighborsClassifier'
p133
aS'872_10_l1_TfidfVectorizer|no_transformation|l1_0.07701_27_LogisticRegression'
p134
asI11
(lp135
S'779_7_l1_TfidfVectorizer|no_transformation|l1_0.04826_148_LogisticRegression'
p136
aS'42_0.410445098648_0.909733574973_0.613520875516_4.47481215026_180_LatentDirichletAllocation|no_transformation|103_entropy_0.26374_RandomForestClassifier'
p137
aS'50_0.674866822561_0.629862812922_0.624553473903_44.872074069_210_LatentDirichletAllocation|no_transformation|150_entropy_0.3974_RandomForestClassifier'
p138
aS'303_5_l2_TfidfVectorizer|no_transformation|0.166301343547_gini_best_DecisionTreeClassifier'
p139
aS'393_2_l2_TfidfVectorizer|no_transformation|0.913019164087_gini_best_DecisionTreeClassifier'
p140
aS'1000_None_HashingVectorizer|no_transformation|0.757103347315_entropy_random_DecisionTreeClassifier'
p141
aS'848_3_CountVectorizer|no_transformation|l1_0.01594_295_LogisticRegression'
p142
aS'34_0.518136611381_0.808605035145_0.845777728476_12.4797271663_300_LatentDirichletAllocation|no_transformation|64_gini_0.08799_RandomForestClassifier'
p143
aS'42_0.0469443947217_0.24256547926_0.664415869296_31.6200898857_180_LatentDirichletAllocation|no_transformation|100_entropy_0.59178_RandomForestClassifier'
p144
aS'4000_None_HashingVectorizer|no_transformation|l2_0.09586_104_LogisticRegression'
p145
aS'148_4_l1_TfidfVectorizer|no_transformation|115_entropy_0.04921_RandomForestClassifier'
p146
asI12
(lp147
S'279_5_l2_TfidfVectorizer|no_transformation|63_gini_0.74022_RandomForestClassifier'
p148
aS'11_0.0667997827583_0.983413370179_0.688397639368_3.14613327594_150_LatentDirichletAllocation|no_transformation|0.918585894235_entropy_random_DecisionTreeClassifier'
p149
aS'39_0.124628529525_0.00173074431968_0.934998705739_15.3735668576_150_LatentDirichletAllocation|no_transformation|l2_0.07308_285_LogisticRegression'
p150
aS'917_4_l1_TfidfVectorizer|no_transformation|l2_0.05256_277_LogisticRegression'
p151
aS'27_0.195604043566_0.540367772219_0.69163932337_6.30468433846_300_LatentDirichletAllocation|no_transformation|57_entropy_0.69078_RandomForestClassifier'
p152
aS'713_7_l1_TfidfVectorizer|no_transformation|12_uniform_chebyshev_2_KNeighborsClassifier'
p153
aS'25_0.646718357076_0.781824954193_0.511658439127_8.47380381369_300_LatentDirichletAllocation|no_transformation|l1_0.09944_125_LogisticRegression'
p154
aS'701_4_l2_TfidfVectorizer|no_transformation|l1_0.06279_289_LogisticRegression'
p155
aS'47_0.585274290974_0.926950458428_0.6135586917_14.3646701998_300_LatentDirichletAllocation|no_transformation|0.578348773081_entropy_best_DecisionTreeClassifier'
p156
aS'650_3_CountVectorizer|no_transformation|GaussianNB'
p157
aS'40_0.160858167383_0.87870296329_0.748764939471_48.2540250552_300_LatentDirichletAllocation|no_transformation|GaussianNB'
p158
asI13
(lp159
S'628_1_CountVectorizer|no_transformation|85_gini_0.94305_RandomForestClassifier'
p160
aS'472_2_CountVectorizer|no_transformation|l2_0.00204_188_LogisticRegression'
p161
aS'608_6_CountVectorizer|no_transformation|l2_0.02085_90_LogisticRegression'
p162
aS'348_3_l1_TfidfVectorizer|no_transformation|l2_0.05589_431_LogisticRegression'
p163
aS'34_0.805953966547_0.93217253734_0.595876833075_46.200678014_150_LatentDirichletAllocation|no_transformation|122_entropy_0.29532_RandomForestClassifier'
p164
aS'455_6_CountVectorizer|no_transformation|0.303896517871_gini_best_DecisionTreeClassifier'
p165
aS'20_0.973437655942_0.953217863954_0.966482335557_17.2256974046_180_LatentDirichletAllocation|no_transformation|105_gini_0.77259_RandomForestClassifier'
p166
aS'30_0.646364505719_0.142655241767_0.761561271527_48.3833022559_250_LatentDirichletAllocation|no_transformation|70_gini_0.55451_RandomForestClassifier'
p167
aS'572_8_CountVectorizer|no_transformation|62_entropy_0.31149_RandomForestClassifier'
p168
aS'270_2_CountVectorizer|no_transformation|l2_0.00912_7_LogisticRegression'
p169
aS'402_5_None_TfidfVectorizer|no_transformation|0.313566964503_entropy_random_DecisionTreeClassifier'
p170
asI14
(lp171
S'226_5_CountVectorizer|no_transformation|l1_0.09385_196_LogisticRegression'
p172
aS'643_1_CountVectorizer|no_transformation|0.676550486933_entropy_random_DecisionTreeClassifier'
p173
aS'561_7_None_TfidfVectorizer|no_transformation|17_uniform_chebyshev_2_KNeighborsClassifier'
p174
aS'30_0.12328915256_0.618774692623_0.935189451249_34.7767591787_250_LatentDirichletAllocation|no_transformation|103_gini_0.59533_RandomForestClassifier'
p175
aS'991_7_CountVectorizer|no_transformation|l1_0.02127_202_LogisticRegression'
p176
aS'238_1_CountVectorizer|no_transformation|l1_0.04606_273_LogisticRegression'
p177
aS'20_0.792905906084_0.169600777517_0.683221251341_49.1945579208_300_LatentDirichletAllocation|no_transformation|l2_0.05033_292_LogisticRegression'
p178
aS'49_0.294744520725_0.704484474431_0.9385267208_21.1874924055_300_LatentDirichletAllocation|no_transformation|82_gini_0.97632_RandomForestClassifier'
p179
aS'25_0.496445767504_0.755956306306_0.863220241746_24.2394905869_300_LatentDirichletAllocation|no_transformation|0.294081515106_gini_random_DecisionTreeClassifier'
p180
aS'21_0.760941646232_0.804409774237_0.658278207534_43.3335618865_180_LatentDirichletAllocation|no_transformation|l2_0.06521_302_LogisticRegression'
p181
aS'16_0.139290442585_0.915548999095_0.598271240303_10.8677283646_210_LatentDirichletAllocation|no_transformation|18_uniform_chebyshev_2_KNeighborsClassifier'
p182
asI15
(lp183
S'407_5_None_TfidfVectorizer|no_transformation|l1_0.09076_396_LogisticRegression'
p184
aS'30_0.324981572228_0.485737811009_0.746346196435_9.77413589765_180_LatentDirichletAllocation|no_transformation|0.912106334802_entropy_random_DecisionTreeClassifier'
p185
aS'25_0.234018925493_0.548649942412_0.97420266303_24.2119445048_150_LatentDirichletAllocation|no_transformation|l1_0.01186_249_LogisticRegression'
p186
aS'396_8_l2_TfidfVectorizer|no_transformation|149_gini_0.92897_RandomForestClassifier'
p187
aS'47_0.548897713039_0.464039175734_0.893053259858_31.0897757377_180_LatentDirichletAllocation|no_transformation|l1_0.07351_360_LogisticRegression'
p188
aS'944_2_l2_TfidfVectorizer|no_transformation|125_entropy_0.23229_RandomForestClassifier'
p189
aS'494_5_CountVectorizer|no_transformation|l1_0.09295_134_LogisticRegression'
p190
aS'959_10_l1_TfidfVectorizer|no_transformation|91_gini_0.77034_RandomForestClassifier'
p191
aS'29_0.162762194754_0.709349440178_0.79739089041_24.2662240704_180_LatentDirichletAllocation|no_transformation|0.71143698183_gini_random_DecisionTreeClassifier'
p192
aS'410_2_l2_TfidfVectorizer|no_transformation|17_distance_chebyshev_2_KNeighborsClassifier'
p193
aS'36_0.682475672512_0.0482249720274_0.523991618731_9.7420264996_250_LatentDirichletAllocation|no_transformation|l1_0.02_387_LogisticRegression'
p194
asI16
(lp195
S'19_0.977914985818_0.98980343279_0.78156047716_37.0599946251_210_LatentDirichletAllocation|no_transformation|0.0305789735443_gini_random_DecisionTreeClassifier'
p196
aS'45_0.726814784485_0.708091813186_0.709083701904_24.9705643562_250_LatentDirichletAllocation|no_transformation|l2_0.00262_229_LogisticRegression'
p197
aS'32_0.903157657087_0.633890649161_0.569180534944_30.4785101983_150_LatentDirichletAllocation|no_transformation|0.922555912228_gini_best_DecisionTreeClassifier'
p198
aS'10_0.256889057418_0.0848512253781_0.652449689181_41.9545890748_250_LatentDirichletAllocation|no_transformation|59_gini_0.17471_RandomForestClassifier'
p199
aS'823_6_CountVectorizer|no_transformation|0.191843908394_entropy_best_DecisionTreeClassifier'
p200
aS'924_7_l1_TfidfVectorizer|no_transformation|10_distance_minkowski_14_KNeighborsClassifier'
p201
aS'148_2_CountVectorizer|no_transformation|l2_0.08964_428_LogisticRegression'
p202
aS'2000_l1_HashingVectorizer|no_transformation|82_entropy_0.8799_RandomForestClassifier'
p203
aS'39_0.418127129923_0.0701135148646_0.693092078381_43.5237168879_210_LatentDirichletAllocation|no_transformation|91_entropy_0.28827_RandomForestClassifier'
p204
aS'835_10_None_TfidfVectorizer|no_transformation|129_entropy_0.53723_RandomForestClassifier'
p205
aS'963_6_l2_TfidfVectorizer|no_transformation|54_entropy_0.52787_RandomForestClassifier'
p206
asI17
(lp207
S'1000_None_HashingVectorizer|no_transformation|2_distance_minkowski_4_KNeighborsClassifier'
p208
aS'19_0.941609823284_0.0225061988913_0.785986143113_27.4077109973_150_LatentDirichletAllocation|no_transformation|0.482718371024_entropy_random_DecisionTreeClassifier'
p209
aS'639_3_CountVectorizer|no_transformation|0.57412018537_gini_random_DecisionTreeClassifier'
p210
aS'782_7_None_TfidfVectorizer|no_transformation|l2_0.01104_22_LogisticRegression'
p211
aS'860_7_CountVectorizer|no_transformation|l1_0.06852_321_LogisticRegression'
p212
aS'726_8_None_TfidfVectorizer|no_transformation|l2_0.05574_118_LogisticRegression'
p213
aS'111_5_CountVectorizer|no_transformation|l1_0.08969_283_LogisticRegression'
p214
aS'33_0.238867792456_0.386020668073_0.799022080552_18.4093940617_180_LatentDirichletAllocation|no_transformation|115_entropy_0.11149_RandomForestClassifier'
p215
aS'393_9_l2_TfidfVectorizer|no_transformation|l1_0.02494_451_LogisticRegression'
p216
aS'43_0.747251384062_0.861046913955_0.8018905715_4.07032908634_250_LatentDirichletAllocation|no_transformation|17_distance_chebyshev_2_KNeighborsClassifier'
p217
aS'967_1_None_TfidfVectorizer|no_transformation|21_distance_minkowski_1_KNeighborsClassifier'
p218
asI18
(lp219
S'602_4_None_TfidfVectorizer|no_transformation|l2_0.08405_307_LogisticRegression'
p220
aS'416_1_l2_TfidfVectorizer|no_transformation|150_entropy_0.05229_RandomForestClassifier'
p221
aS'994_1_CountVectorizer|no_transformation|l2_0.09026_80_LogisticRegression'
p222
aS'414_7_l1_TfidfVectorizer|no_transformation|0.5996574238_gini_best_DecisionTreeClassifier'
p223
aS'812_2_None_TfidfVectorizer|no_transformation|0.505198585501_entropy_best_DecisionTreeClassifier'
p224
aS'40_0.3518763617_0.641586494779_0.62929928607_28.8861100029_250_LatentDirichletAllocation|no_transformation|138_entropy_0.82649_RandomForestClassifier'
p225
aS'154_7_CountVectorizer|no_transformation|l1_0.04255_406_LogisticRegression'
p226
aS'46_0.440462954651_0.2761238758_0.550781205016_33.5640176365_150_LatentDirichletAllocation|no_transformation|71_entropy_0.50792_RandomForestClassifier'
p227
aS'11_0.90162662536_0.4568974403_0.717702924284_30.7181228533_150_LatentDirichletAllocation|no_transformation|l2_0.01092_296_LogisticRegression'
p228
aS'43_0.144522351604_0.237137426359_0.99490396277_31.23680307_150_LatentDirichletAllocation|no_transformation|l1_0.06438_480_LogisticRegression'
p229
aS'202_9_None_TfidfVectorizer|no_transformation|0.341336525523_entropy_random_DecisionTreeClassifier'
p230
asI19
(lp231
S'6000_l1_HashingVectorizer|no_transformation|108_entropy_0.15788_RandomForestClassifier'
p232
aS'377_3_CountVectorizer|no_transformation|111_entropy_0.44509_RandomForestClassifier'
p233
aS'21_0.298100943525_0.344997502974_0.812652354858_26.6985550316_150_LatentDirichletAllocation|no_transformation|0.180521686536_entropy_best_DecisionTreeClassifier'
p234
aS'190_6_CountVectorizer|no_transformation|l2_0.03869_257_LogisticRegression'
p235
aS'43_0.188836920107_0.584788822124_0.55306900142_7.27368073595_250_LatentDirichletAllocation|no_transformation|0.0719841493107_gini_best_DecisionTreeClassifier'
p236
aS'511_1_l1_TfidfVectorizer|no_transformation|l2_0.00396_488_LogisticRegression'
p237
aS'809_8_l2_TfidfVectorizer|no_transformation|78_entropy_0.46965_RandomForestClassifier'
p238
aS'307_4_None_TfidfVectorizer|no_transformation|0.658658333541_gini_random_DecisionTreeClassifier'
p239
aS'474_5_CountVectorizer|no_transformation|l1_0.02806_144_LogisticRegression'
p240
aS'946_9_CountVectorizer|no_transformation|111_entropy_0.89157_RandomForestClassifier'
p241
aS'637_10_None_TfidfVectorizer|no_transformation|0.558295113891_gini_best_DecisionTreeClassifier'
p242
asI20
(lp243
S'926_6_CountVectorizer|no_transformation|78_gini_0.81666_RandomForestClassifier'
p244
aS'640_7_l1_TfidfVectorizer|no_transformation|89_entropy_0.5312_RandomForestClassifier'
p245
aS'47_0.309567598773_0.90468193053_0.903452343487_41.8141385268_180_LatentDirichletAllocation|no_transformation|l1_0.09776_452_LogisticRegression'
p246
aS'302_10_l1_TfidfVectorizer|no_transformation|125_gini_0.60027_RandomForestClassifier'
p247
aS'629_6_CountVectorizer|no_transformation|l2_0.09735_316_LogisticRegression'
p248
aS'50_0.320599349658_0.618332639232_0.859261159598_39.7622327746_180_LatentDirichletAllocation|no_transformation|l1_0.0022_83_LogisticRegression'
p249
aS'41_0.955497903966_0.937254245486_0.728147561521_12.4510004522_210_LatentDirichletAllocation|no_transformation|65_gini_0.83107_RandomForestClassifier'
p250
aS'43_0.573048536549_0.462973367749_0.82449007835_42.364205863_250_LatentDirichletAllocation|no_transformation|77_entropy_0.71095_RandomForestClassifier'
p251
aS'48_0.312795699947_0.880600276924_0.675105829913_4.9030391997_300_LatentDirichletAllocation|no_transformation|0.0704816233079_gini_best_DecisionTreeClassifier'
p252
aS'907_4_l1_TfidfVectorizer|no_transformation|140_gini_0.2344_RandomForestClassifier'
p253
aS'10_0.60807288283_0.191311597863_0.592004536283_32.7006795733_210_LatentDirichletAllocation|no_transformation|11_uniform_chebyshev_2_KNeighborsClassifier'
p254
asI21
(lp255
S'699_9_CountVectorizer|no_transformation|62_gini_0.1987_RandomForestClassifier'
p256
aS'593_10_CountVectorizer|no_transformation|64_entropy_0.1108_RandomForestClassifier'
p257
aS'45_0.544956532753_0.237295029253_0.870286761776_44.9338332196_300_LatentDirichletAllocation|no_transformation|5_distance_minkowski_9_KNeighborsClassifier'
p258
aS'980_4_CountVectorizer|no_transformation|l2_0.02158_50_LogisticRegression'
p259
aS'293_6_CountVectorizer|no_transformation|l1_0.01332_25_LogisticRegression'
p260
aS'36_0.460961452189_0.619743676825_0.872444568698_21.8135846767_250_LatentDirichletAllocation|no_transformation|l1_0.08543_65_LogisticRegression'
p261
aS'145_4_None_TfidfVectorizer|no_transformation|l2_0.066_401_LogisticRegression'
p262
aS'478_5_None_TfidfVectorizer|no_transformation|126_gini_0.50875_RandomForestClassifier'
p263
aS'857_6_l1_TfidfVectorizer|no_transformation|81_entropy_0.94856_RandomForestClassifier'
p264
aS'419_2_CountVectorizer|no_transformation|87_entropy_0.76478_RandomForestClassifier'
p265
aS'18_0.0696728069489_0.687634014614_0.771797645203_48.1517681163_210_LatentDirichletAllocation|no_transformation|0.967320682393_entropy_random_DecisionTreeClassifier'
p266
asI22
(lp267
S'330_9_CountVectorizer|no_transformation|23_uniform_minkowski_4_KNeighborsClassifier'
p268
aS'972_1_CountVectorizer|no_transformation|l1_0.01656_464_LogisticRegression'
p269
aS'334_5_CountVectorizer|no_transformation|0.165604595883_entropy_random_DecisionTreeClassifier'
p270
aS'841_9_CountVectorizer|no_transformation|l1_0.02133_100_LogisticRegression'
p271
aS'216_8_l2_TfidfVectorizer|no_transformation|0.118568306254_entropy_random_DecisionTreeClassifier'
p272
aS'10000_None_HashingVectorizer|no_transformation|l2_0.05628_71_LogisticRegression'
p273
aS'200_3_CountVectorizer|no_transformation|0.914341628024_entropy_best_DecisionTreeClassifier'
p274
aS'958_5_l2_TfidfVectorizer|no_transformation|93_entropy_0.1026_RandomForestClassifier'
p275
aS'14_0.70928660102_0.0573553044697_0.718157163751_31.7876624377_210_LatentDirichletAllocation|no_transformation|132_gini_0.42967_RandomForestClassifier'
p276
aS'689_1_l1_TfidfVectorizer|no_transformation|0.165112808767_gini_random_DecisionTreeClassifier'
p277
aS'1000_l2_HashingVectorizer|no_transformation|l1_0.01858_469_LogisticRegression'
p278
asI23
(lp279
S'45_0.00374489945875_0.690647936451_0.727513689616_19.6608846095_250_LatentDirichletAllocation|no_transformation|72_entropy_0.66578_RandomForestClassifier'
p280
aS'46_0.169923407396_0.0779589288555_0.634575852528_42.5612458657_180_LatentDirichletAllocation|no_transformation|17_uniform_minkowski_4_KNeighborsClassifier'
p281
aS'41_0.556427973506_0.0528984231684_0.59386054245_11.018146106_150_LatentDirichletAllocation|no_transformation|l1_0.02018_405_LogisticRegression'
p282
aS'33_0.659142637153_0.894769603284_0.616643186335_12.0494852244_250_LatentDirichletAllocation|no_transformation|114_gini_0.13545_RandomForestClassifier'
p283
aS'181_8_CountVectorizer|no_transformation|116_gini_0.03078_RandomForestClassifier'
p284
aS'24_0.967042422065_0.741250650045_0.516248222459_15.8220917343_210_LatentDirichletAllocation|no_transformation|0.991178325652_entropy_random_DecisionTreeClassifier'
p285
aS'404_4_CountVectorizer|no_transformation|98_gini_0.65623_RandomForestClassifier'
p286
aS'43_0.75376809536_0.568464789036_0.521708509752_31.1755317405_300_LatentDirichletAllocation|no_transformation|l1_0.00516_437_LogisticRegression'
p287
aS'12_0.0477281004116_0.920564360491_0.66320324038_6.48219736251_180_LatentDirichletAllocation|no_transformation|l2_0.08641_152_LogisticRegression'
p288
aS'515_7_l2_TfidfVectorizer|no_transformation|135_gini_0.6461_RandomForestClassifier'
p289
aS'272_5_CountVectorizer|no_transformation|90_gini_0.14485_RandomForestClassifier'
p290
asI24
(lp291
S'50_0.00316570655432_0.859094088383_0.531404637513_33.2214280098_300_LatentDirichletAllocation|no_transformation|143_gini_0.70935_RandomForestClassifier'
p292
aS'49_0.329167699719_0.962032846345_0.777580307455_2.06703544677_250_LatentDirichletAllocation|no_transformation|8_distance_chebyshev_2_KNeighborsClassifier'
p293
aS'459_2_l2_TfidfVectorizer|no_transformation|88_entropy_0.44663_RandomForestClassifier'
p294
aS'993_10_l2_TfidfVectorizer|no_transformation|0.604072969367_entropy_best_DecisionTreeClassifier'
p295
aS'16_0.0038190230632_0.0634545165632_0.734294891758_3.16665808783_180_LatentDirichletAllocation|no_transformation|0.565829733835_gini_best_DecisionTreeClassifier'
p296
aS'15_0.891144684696_0.643389889415_0.655535856269_33.6485901887_300_LatentDirichletAllocation|no_transformation|25_uniform_minkowski_11_KNeighborsClassifier'
p297
aS'4000_None_HashingVectorizer|no_transformation|128_gini_0.52185_RandomForestClassifier'
p298
aS'477_7_CountVectorizer|no_transformation|121_entropy_0.19028_RandomForestClassifier'
p299
aS'684_4_CountVectorizer|no_transformation|0.65705848875_gini_random_DecisionTreeClassifier'
p300
aS'589_3_CountVectorizer|no_transformation|17_uniform_minkowski_15_KNeighborsClassifier'
p301
aS'30_0.331684653729_0.303482278721_0.821910422879_5.32019247344_180_LatentDirichletAllocation|no_transformation|72_entropy_0.09383_RandomForestClassifier'
p302
asI25
(lp303
S'23_0.104213074691_0.83185792488_0.574899092815_20.4676313556_250_LatentDirichletAllocation|no_transformation|l1_0.00733_470_LogisticRegression'
p304
aS'50_0.589874012899_0.26938542123_0.957578610272_37.6899098311_180_LatentDirichletAllocation|no_transformation|109_gini_0.60406_RandomForestClassifier'
p305
aS'345_1_CountVectorizer|no_transformation|l2_0.01375_310_LogisticRegression'
p306
aS'192_4_l1_TfidfVectorizer|no_transformation|l1_0.06546_203_LogisticRegression'
p307
aS'552_3_l2_TfidfVectorizer|no_transformation|l2_0.01209_174_LogisticRegression'
p308
aS'168_2_CountVectorizer|no_transformation|83_gini_0.82942_RandomForestClassifier'
p309
aS'695_3_CountVectorizer|no_transformation|4_uniform_chebyshev_2_KNeighborsClassifier'
p310
aS'44_0.572214431444_0.286926955023_0.795965410749_47.3959800926_250_LatentDirichletAllocation|no_transformation|123_gini_0.80528_RandomForestClassifier'
p311
aS'36_0.122011338737_0.63085090293_0.858398178484_38.0968513522_180_LatentDirichletAllocation|no_transformation|3_distance_minkowski_10_KNeighborsClassifier'
p312
aS'41_0.975401800398_0.981869984491_0.768535025226_9.35419861201_210_LatentDirichletAllocation|no_transformation|96_entropy_0.23984_RandomForestClassifier'
p313
aS'26_0.688188918915_0.656886574464_0.633415319805_18.1735273136_180_LatentDirichletAllocation|no_transformation|58_gini_0.7054_RandomForestClassifier'
p314
asI26
(lp315
S'482_10_l2_TfidfVectorizer|no_transformation|l1_0.08338_154_LogisticRegression'
p316
aS'16_0.629913217207_0.784767302689_0.660032602961_45.7930074369_150_LatentDirichletAllocation|no_transformation|22_distance_chebyshev_2_KNeighborsClassifier'
p317
aS'28_0.0595346241682_0.405230651442_0.670889145304_6.36830151141_180_LatentDirichletAllocation|no_transformation|83_gini_0.16962_RandomForestClassifier'
p318
aS'29_0.0186089857726_0.244505963051_0.667637984006_34.9465606267_300_LatentDirichletAllocation|no_transformation|2_distance_chebyshev_2_KNeighborsClassifier'
p319
aS'972_1_l1_TfidfVectorizer|no_transformation|85_entropy_0.90943_RandomForestClassifier'
p320
aS'14_0.184514078833_0.589556501295_0.851206693669_8.17965615732_210_LatentDirichletAllocation|no_transformation|l1_0.09427_377_LogisticRegression'
p321
aS'17_0.857508363245_0.90514818112_0.529495045635_37.0978943288_150_LatentDirichletAllocation|no_transformation|l1_0.0564_403_LogisticRegression'
p322
aS'25_0.15145533998_0.64093283336_0.762337053807_42.7895874432_150_LatentDirichletAllocation|no_transformation|140_gini_0.92208_RandomForestClassifier'
p323
aS'37_0.520470911404_0.361985964281_0.695964026639_32.6213853919_250_LatentDirichletAllocation|no_transformation|65_gini_0.62349_RandomForestClassifier'
p324
aS'10000_None_HashingVectorizer|no_transformation|0.509331172558_gini_random_DecisionTreeClassifier'
p325
aS'30_0.976519951565_0.767725769263_0.73239213965_22.9535088901_300_LatentDirichletAllocation|no_transformation|l1_0.08117_154_LogisticRegression'
p326
asI27
(lp327
S'712_3_CountVectorizer|no_transformation|55_entropy_0.12707_RandomForestClassifier'
p328
aS'311_10_None_TfidfVectorizer|no_transformation|l2_0.0548_382_LogisticRegression'
p329
aS'353_9_CountVectorizer|no_transformation|82_gini_0.51699_RandomForestClassifier'
p330
aS'341_2_None_TfidfVectorizer|no_transformation|144_entropy_0.37554_RandomForestClassifier'
p331
aS'971_10_CountVectorizer|no_transformation|133_gini_0.59763_RandomForestClassifier'
p332
aS'15_0.265240050429_0.607161953214_0.970991519526_46.4851195293_150_LatentDirichletAllocation|no_transformation|51_entropy_0.27659_RandomForestClassifier'
p333
aS'19_0.576868446172_0.321065870198_0.951617250241_11.8127027689_300_LatentDirichletAllocation|no_transformation|119_entropy_0.23858_RandomForestClassifier'
p334
aS'724_6_CountVectorizer|no_transformation|l1_0.01912_328_LogisticRegression'
p335
aS'39_0.574029528316_0.800861871597_0.60965016373_25.0374749382_180_LatentDirichletAllocation|no_transformation|60_gini_0.4797_RandomForestClassifier'
p336
aS'32_0.223791489205_0.680856996024_0.58727174548_29.4898703275_300_LatentDirichletAllocation|no_transformation|118_entropy_0.09514_RandomForestClassifier'
p337
aS'777_10_l2_TfidfVectorizer|no_transformation|l1_0.00846_144_LogisticRegression'
p338
asI28
(lp339
S'409_7_l1_TfidfVectorizer|no_transformation|l2_0.0062_241_LogisticRegression'
p340
aS'14_0.215478407094_0.951977829052_0.912660132527_47.983932337_180_LatentDirichletAllocation|no_transformation|l1_0.0494_334_LogisticRegression'
p341
aS'970_9_CountVectorizer|no_transformation|140_entropy_0.31144_RandomForestClassifier'
p342
aS'757_3_CountVectorizer|no_transformation|l2_0.01422_53_LogisticRegression'
p343
aS'634_5_l2_TfidfVectorizer|no_transformation|0.245721116025_entropy_random_DecisionTreeClassifier'
p344
aS'10000_l2_HashingVectorizer|no_transformation|113_gini_0.54053_RandomForestClassifier'
p345
aS'415_2_CountVectorizer|no_transformation|0.491047399808_entropy_best_DecisionTreeClassifier'
p346
aS'44_0.567423372197_0.113927974081_0.770941295179_9.21258554065_300_LatentDirichletAllocation|no_transformation|70_entropy_0.63379_RandomForestClassifier'
p347
aS'8000_l1_HashingVectorizer|no_transformation|l1_0.0316_459_LogisticRegression'
p348
aS'588_5_CountVectorizer|no_transformation|l2_0.06649_284_LogisticRegression'
p349
aS'13_0.867563359354_0.241042792126_0.854452791936_28.0604965079_180_LatentDirichletAllocation|no_transformation|0.951164396871_gini_best_DecisionTreeClassifier'
p350
asI29
(lp351
S'805_4_CountVectorizer|no_transformation|50_gini_0.78535_RandomForestClassifier'
p352
aS'26_0.759922061717_0.546317653407_0.808557657017_45.6116882621_150_LatentDirichletAllocation|no_transformation|l1_0.07241_461_LogisticRegression'
p353
aS'563_7_l2_TfidfVectorizer|no_transformation|0.208272845073_gini_random_DecisionTreeClassifier'
p354
aS'4000_None_HashingVectorizer|no_transformation|l1_0.06243_220_LogisticRegression'
p355
aS'49_0.460739930242_0.811606666693_0.974792784137_21.066713296_210_LatentDirichletAllocation|no_transformation|0.63738057689_gini_best_DecisionTreeClassifier'
p356
aS'811_8_None_TfidfVectorizer|no_transformation|125_gini_0.40753_RandomForestClassifier'
p357
aS'187_4_CountVectorizer|no_transformation|l2_0.04995_421_LogisticRegression'
p358
aS'23_0.490138577449_0.751975668471_0.65964239999_43.6343419879_210_LatentDirichletAllocation|no_transformation|l1_0.08906_193_LogisticRegression'
p359
aS'238_5_CountVectorizer|no_transformation|l1_0.04595_478_LogisticRegression'
p360
aS'351_3_CountVectorizer|no_transformation|l2_0.06013_388_LogisticRegression'
p361
aS'827_10_l2_TfidfVectorizer|no_transformation|0.973999118227_entropy_random_DecisionTreeClassifier'
p362
asI30
(lp363
S'286_8_None_TfidfVectorizer|no_transformation|0.434967810395_entropy_random_DecisionTreeClassifier'
p364
aS'30_0.27626157006_0.414254109813_0.784162669799_41.8725743935_180_LatentDirichletAllocation|no_transformation|0.848052659013_gini_random_DecisionTreeClassifier'
p365
aS'360_10_l2_TfidfVectorizer|no_transformation|l1_0.0227_242_LogisticRegression'
p366
aS'45_0.997989297955_0.0377091650782_0.645316187788_22.7104205203_180_LatentDirichletAllocation|no_transformation|l1_0.04373_317_LogisticRegression'
p367
aS'24_0.3816666473_0.0488444992658_0.952511886173_10.0138722277_150_LatentDirichletAllocation|no_transformation|127_entropy_0.78679_RandomForestClassifier'
p368
aS'993_1_CountVectorizer|no_transformation|0.615362464432_entropy_random_DecisionTreeClassifier'
p369
aS'31_0.34338573899_0.334120067228_0.980053292325_21.8487236897_150_LatentDirichletAllocation|no_transformation|55_entropy_0.92904_RandomForestClassifier'
p370
aS'245_1_l1_TfidfVectorizer|no_transformation|l2_0.05316_171_LogisticRegression'
p371
aS'331_7_l2_TfidfVectorizer|no_transformation|124_entropy_0.8465_RandomForestClassifier'
p372
aS'873_3_None_TfidfVectorizer|no_transformation|147_entropy_0.71433_RandomForestClassifier'
p373
aS'642_2_l1_TfidfVectorizer|no_transformation|20_uniform_chebyshev_2_KNeighborsClassifier'
p374
asI31
(lp375
S'432_10_l1_TfidfVectorizer|no_transformation|0.766450832202_entropy_random_DecisionTreeClassifier'
p376
aS'13_0.0422757972756_0.771222374774_0.908283853029_18.7965607393_210_LatentDirichletAllocation|no_transformation|l2_0.04731_285_LogisticRegression'
p377
aS'423_6_None_TfidfVectorizer|no_transformation|57_entropy_0.81888_RandomForestClassifier'
p378
aS'875_4_CountVectorizer|no_transformation|l2_0.02994_32_LogisticRegression'
p379
aS'933_9_l1_TfidfVectorizer|no_transformation|4_distance_chebyshev_2_KNeighborsClassifier'
p380
aS'130_3_CountVectorizer|no_transformation|131_gini_0.11679_RandomForestClassifier'
p381
aS'31_0.487540698016_0.912788204179_0.800456780034_15.6613579456_210_LatentDirichletAllocation|no_transformation|0.734702670904_entropy_random_DecisionTreeClassifier'
p382
aS'494_10_l2_TfidfVectorizer|no_transformation|110_entropy_0.20262_RandomForestClassifier'
p383
aS'21_0.108858812563_0.801281190288_0.711079760631_43.4376562538_150_LatentDirichletAllocation|no_transformation|l2_0.07201_206_LogisticRegression'
p384
aS'41_0.677960524321_0.0578051706118_0.977690078906_18.625424807_250_LatentDirichletAllocation|no_transformation|l2_0.04054_22_LogisticRegression'
p385
aS'976_9_CountVectorizer|no_transformation|l1_0.04175_379_LogisticRegression'
p386
asI32
(lp387
S'17_0.846052068631_0.474039863049_0.929734932467_3.20276030722_250_LatentDirichletAllocation|no_transformation|74_entropy_0.9393_RandomForestClassifier'
p388
aS'31_0.361540378781_0.414484562801_0.793256847944_37.4433047023_210_LatentDirichletAllocation|no_transformation|88_gini_0.97884_RandomForestClassifier'
p389
aS'27_0.280759553261_0.521775896895_0.900252958169_49.9244460993_250_LatentDirichletAllocation|no_transformation|l1_0.04554_330_LogisticRegression'
p390
aS'585_1_None_TfidfVectorizer|no_transformation|59_gini_0.67797_RandomForestClassifier'
p391
aS'971_5_None_TfidfVectorizer|no_transformation|7_uniform_chebyshev_2_KNeighborsClassifier'
p392
aS'539_9_l2_TfidfVectorizer|no_transformation|l2_0.00225_342_LogisticRegression'
p393
aS'676_7_None_TfidfVectorizer|no_transformation|l1_0.04841_135_LogisticRegression'
p394
aS'338_9_CountVectorizer|no_transformation|0.704912742406_gini_best_DecisionTreeClassifier'
p395
aS'20_0.955978223295_0.456002294186_0.791579557764_32.0495786751_250_LatentDirichletAllocation|no_transformation|77_entropy_0.46467_RandomForestClassifier'
p396
aS'185_10_CountVectorizer|no_transformation|l2_0.03341_193_LogisticRegression'
p397
aS'103_6_CountVectorizer|no_transformation|0.637963666988_entropy_best_DecisionTreeClassifier'
p398
asI33
(lp399
S'18_0.00840562978093_0.944245195083_0.768798657583_6.94199510282_300_LatentDirichletAllocation|no_transformation|112_gini_0.85062_RandomForestClassifier'
p400
aS'368_8_CountVectorizer|no_transformation|109_entropy_0.83119_RandomForestClassifier'
p401
aS'11_0.329501837862_0.71048329123_0.576479212928_23.5176020881_300_LatentDirichletAllocation|no_transformation|18_uniform_minkowski_5_KNeighborsClassifier'
p402
aS'32_0.903241864307_0.807976455475_0.894046041299_23.6607637133_150_LatentDirichletAllocation|no_transformation|l1_0.01633_56_LogisticRegression'
p403
aS'262_6_None_TfidfVectorizer|no_transformation|l2_0.08298_418_LogisticRegression'
p404
aS'790_9_l2_TfidfVectorizer|no_transformation|0.985485387104_gini_random_DecisionTreeClassifier'
p405
aS'50_0.0459421259802_0.0481803720523_0.822997359099_24.0368492961_150_LatentDirichletAllocation|no_transformation|17_uniform_minkowski_9_KNeighborsClassifier'
p406
aS'252_2_None_TfidfVectorizer|no_transformation|98_gini_0.34296_RandomForestClassifier'
p407
aS'300_9_CountVectorizer|no_transformation|126_entropy_0.86378_RandomForestClassifier'
p408
aS'927_1_CountVectorizer|no_transformation|140_entropy_0.04214_RandomForestClassifier'
p409
aS'10000_l2_HashingVectorizer|no_transformation|9_distance_chebyshev_2_KNeighborsClassifier'
p410
asI34
(lp411
S'500_8_CountVectorizer|no_transformation|0.996829989398_gini_best_DecisionTreeClassifier'
p412
aS'10000_l2_HashingVectorizer|no_transformation|141_entropy_0.47568_RandomForestClassifier'
p413
aS'478_4_None_TfidfVectorizer|no_transformation|65_gini_0.48943_RandomForestClassifier'
p414
aS'824_6_None_TfidfVectorizer|no_transformation|0.749971143097_gini_random_DecisionTreeClassifier'
p415
aS'145_1_None_TfidfVectorizer|no_transformation|0.414667584585_entropy_best_DecisionTreeClassifier'
p416
aS'50_0.439099334389_0.410759350257_0.557118783622_16.2653236563_300_LatentDirichletAllocation|no_transformation|0.971609262123_gini_best_DecisionTreeClassifier'
p417
aS'861_4_l1_TfidfVectorizer|no_transformation|0.367047789232_entropy_best_DecisionTreeClassifier'
p418
aS'1000_l1_HashingVectorizer|no_transformation|GaussianNB'
p419
aS'31_0.793294466099_0.169713113884_0.789938141241_44.9152778997_180_LatentDirichletAllocation|no_transformation|l1_0.0209_451_LogisticRegression'
p420
aS'118_10_CountVectorizer|no_transformation|88_entropy_0.34231_RandomForestClassifier'
p421
aS'371_6_None_TfidfVectorizer|no_transformation|92_entropy_0.28481_RandomForestClassifier'
p422
asI35
(lp423
S'699_3_None_TfidfVectorizer|no_transformation|2_uniform_minkowski_10_KNeighborsClassifier'
p424
aS'583_10_None_TfidfVectorizer|no_transformation|l2_0.03649_135_LogisticRegression'
p425
aS'666_6_l2_TfidfVectorizer|no_transformation|0.36011525826_entropy_random_DecisionTreeClassifier'
p426
aS'26_0.417774649438_0.0315319933297_0.976274272091_1.6367647038_300_LatentDirichletAllocation|no_transformation|96_entropy_0.81393_RandomForestClassifier'
p427
aS'675_9_l2_TfidfVectorizer|no_transformation|l1_0.04282_270_LogisticRegression'
p428
aS'6000_l1_HashingVectorizer|no_transformation|50_gini_0.54241_RandomForestClassifier'
p429
aS'766_9_CountVectorizer|no_transformation|98_entropy_0.90805_RandomForestClassifier'
p430
aS'33_0.66528832836_0.271832154708_0.845829443124_42.5129998114_300_LatentDirichletAllocation|no_transformation|109_entropy_0.20544_RandomForestClassifier'
p431
aS'43_0.0685142099735_0.632421057545_0.765466153248_27.5478873427_210_LatentDirichletAllocation|no_transformation|103_gini_0.05151_RandomForestClassifier'
p432
aS'992_2_None_TfidfVectorizer|no_transformation|l1_0.09936_426_LogisticRegression'
p433
aS'25_0.0033779725225_0.312733160101_0.582597978594_24.4320827895_150_LatentDirichletAllocation|no_transformation|67_gini_0.42926_RandomForestClassifier'
p434
asI36
(lp435
S'37_0.279829336113_0.0735294508247_0.700206091964_40.8236387142_300_LatentDirichletAllocation|no_transformation|l2_0.06646_94_LogisticRegression'
p436
aS'50_0.70133102001_0.859699009825_0.655109935346_29.0038555713_300_LatentDirichletAllocation|no_transformation|0.986424351371_gini_best_DecisionTreeClassifier'
p437
aS'8000_l2_HashingVectorizer|no_transformation|0.489568632888_entropy_best_DecisionTreeClassifier'
p438
aS'640_9_l2_TfidfVectorizer|no_transformation|6_uniform_chebyshev_2_KNeighborsClassifier'
p439
aS'596_8_l1_TfidfVectorizer|no_transformation|56_entropy_0.77069_RandomForestClassifier'
p440
aS'425_2_l2_TfidfVectorizer|no_transformation|3_distance_chebyshev_2_KNeighborsClassifier'
p441
aS'20_0.23774472083_0.301771928407_0.802776870873_12.4512044689_210_LatentDirichletAllocation|no_transformation|140_gini_0.47166_RandomForestClassifier'
p442
aS'10000_l2_HashingVectorizer|no_transformation|0.75392019482_gini_random_DecisionTreeClassifier'
p443
aS'167_4_l2_TfidfVectorizer|no_transformation|l2_0.09752_464_LogisticRegression'
p444
aS'469_3_l1_TfidfVectorizer|no_transformation|0.688697108199_entropy_random_DecisionTreeClassifier'
p445
aS'619_6_l2_TfidfVectorizer|no_transformation|l1_0.06436_472_LogisticRegression'
p446
asI37
(lp447
S'47_0.87360986074_0.8999557152_0.92885028975_3.6530005966_250_LatentDirichletAllocation|no_transformation|105_entropy_0.00519_RandomForestClassifier'
p448
aS'771_6_CountVectorizer|no_transformation|141_entropy_0.00224_RandomForestClassifier'
p449
aS'784_4_CountVectorizer|no_transformation|l2_0.03378_425_LogisticRegression'
p450
aS'21_0.712283753296_0.96231825619_0.834946930377_28.3457249169_180_LatentDirichletAllocation|no_transformation|l2_0.08742_417_LogisticRegression'
p451
aS'448_4_None_TfidfVectorizer|no_transformation|0.133579715299_gini_random_DecisionTreeClassifier'
p452
aS'20_0.00384016763692_0.0478917674155_0.803372082992_24.1540822127_250_LatentDirichletAllocation|no_transformation|l1_0.03779_18_LogisticRegression'
p453
aS'8000_l2_HashingVectorizer|no_transformation|18_distance_chebyshev_2_KNeighborsClassifier'
p454
aS'41_0.524005098287_0.911647256352_0.955839925102_23.4209940771_300_LatentDirichletAllocation|no_transformation|l2_0.09055_301_LogisticRegression'
p455
aS'20_0.359559998292_0.582832911006_0.789558868815_1.33718841978_210_LatentDirichletAllocation|no_transformation|61_entropy_0.52358_RandomForestClassifier'
p456
aS'405_6_None_TfidfVectorizer|no_transformation|0.423696697949_gini_best_DecisionTreeClassifier'
p457
aS'1000_l1_HashingVectorizer|no_transformation|139_gini_0.60271_RandomForestClassifier'
p458
asI38
(lp459
S'401_9_None_TfidfVectorizer|no_transformation|103_entropy_0.69605_RandomForestClassifier'
p460
aS'383_8_l2_TfidfVectorizer|no_transformation|l1_0.06832_24_LogisticRegression'
p461
aS'46_0.683374687178_0.135159576418_0.51523693036_28.8427869108_210_LatentDirichletAllocation|no_transformation|l2_0.01708_312_LogisticRegression'
p462
aS'195_6_CountVectorizer|no_transformation|85_gini_0.12889_RandomForestClassifier'
p463
aS'626_5_l1_TfidfVectorizer|no_transformation|0.0120436082505_entropy_random_DecisionTreeClassifier'
p464
aS'6000_None_HashingVectorizer|no_transformation|65_gini_0.28598_RandomForestClassifier'
p465
aS'43_0.25824837369_0.311684083418_0.832885899112_19.8557270169_250_LatentDirichletAllocation|no_transformation|56_entropy_0.04211_RandomForestClassifier'
p466
aS'108_9_l2_TfidfVectorizer|no_transformation|GaussianNB'
p467
aS'39_0.551798878981_0.0659304568863_0.760662065476_44.2943632322_250_LatentDirichletAllocation|no_transformation|66_entropy_0.84405_RandomForestClassifier'
p468
aS'772_1_None_TfidfVectorizer|no_transformation|l1_0.02528_323_LogisticRegression'
p469
aS'723_1_l1_TfidfVectorizer|no_transformation|9_distance_minkowski_10_KNeighborsClassifier'
p470
asI39
(lp471
S'713_6_CountVectorizer|no_transformation|0.993196229862_entropy_random_DecisionTreeClassifier'
p472
aS'26_0.778430540827_0.385127184321_0.870009314485_42.580782599_210_LatentDirichletAllocation|no_transformation|l2_0.04072_117_LogisticRegression'
p473
aS'969_2_None_TfidfVectorizer|no_transformation|3_uniform_chebyshev_2_KNeighborsClassifier'
p474
aS'986_4_CountVectorizer|no_transformation|95_entropy_0.65729_RandomForestClassifier'
p475
aS'29_0.761796038315_0.912621697247_0.995808237872_35.6546842972_250_LatentDirichletAllocation|no_transformation|122_entropy_0.64317_RandomForestClassifier'
p476
aS'347_3_CountVectorizer|no_transformation|0.378358885399_entropy_best_DecisionTreeClassifier'
p477
aS'35_0.106877210601_0.0155174409857_0.885387289159_3.07313162753_300_LatentDirichletAllocation|no_transformation|l1_0.06323_249_LogisticRegression'
p478
aS'968_9_l2_TfidfVectorizer|no_transformation|l1_0.05967_332_LogisticRegression'
p479
aS'41_0.867461742656_0.789752352748_0.716371930176_39.5600346063_300_LatentDirichletAllocation|no_transformation|16_distance_minkowski_12_KNeighborsClassifier'
p480
aS'15_0.228898531535_0.29735017695_0.636749643763_7.23559385886_150_LatentDirichletAllocation|no_transformation|0.199381309488_gini_random_DecisionTreeClassifier'
p481
aS'273_6_l1_TfidfVectorizer|no_transformation|0.696398772047_gini_best_DecisionTreeClassifier'
p482
asI40
(lp483
S'782_2_None_TfidfVectorizer|no_transformation|113_entropy_0.01717_RandomForestClassifier'
p484
aS'31_0.778674858974_0.333016784791_0.559969711903_41.6053931389_150_LatentDirichletAllocation|no_transformation|8_distance_chebyshev_2_KNeighborsClassifier'
p485
aS'2000_None_HashingVectorizer|no_transformation|123_gini_0.94063_RandomForestClassifier'
p486
aS'45_0.21284259386_0.547886463624_0.73269438391_41.1007450351_150_LatentDirichletAllocation|no_transformation|l2_0.05478_108_LogisticRegression'
p487
aS'42_0.117987703174_0.843051915712_0.922338939457_9.87740409427_210_LatentDirichletAllocation|no_transformation|125_gini_0.79197_RandomForestClassifier'
p488
aS'365_5_CountVectorizer|no_transformation|86_entropy_0.89728_RandomForestClassifier'
p489
aS'422_1_None_TfidfVectorizer|no_transformation|l1_0.03525_354_LogisticRegression'
p490
aS'44_0.854193475295_0.7229428993_0.914254810125_10.9114470744_180_LatentDirichletAllocation|no_transformation|l2_0.08987_42_LogisticRegression'
p491
aS'680_1_CountVectorizer|no_transformation|0.43859495434_gini_random_DecisionTreeClassifier'
p492
aS'21_0.587675709203_0.913146216771_0.742365735155_2.26518700067_210_LatentDirichletAllocation|no_transformation|73_entropy_0.75038_RandomForestClassifier'
p493
aS'286_2_CountVectorizer|no_transformation|0.534782095481_entropy_best_DecisionTreeClassifier'
p494
asI41
(lp495
S'273_2_None_TfidfVectorizer|no_transformation|2_uniform_chebyshev_2_KNeighborsClassifier'
p496
aS'759_1_l1_TfidfVectorizer|no_transformation|125_gini_0.6888_RandomForestClassifier'
p497
aS'28_0.298120837798_0.816392826941_0.747550317414_4.52836484198_150_LatentDirichletAllocation|no_transformation|0.119355520943_entropy_random_DecisionTreeClassifier'
p498
aS'422_2_l1_TfidfVectorizer|no_transformation|144_entropy_0.11905_RandomForestClassifier'
p499
aS'786_2_CountVectorizer|no_transformation|0.700005405197_gini_random_DecisionTreeClassifier'
p500
aS'15_0.32204023241_0.197038409014_0.945498756756_25.5310825366_150_LatentDirichletAllocation|no_transformation|64_entropy_0.1526_RandomForestClassifier'
p501
aS'210_9_l1_TfidfVectorizer|no_transformation|l2_0.01491_489_LogisticRegression'
p502
aS'249_7_l2_TfidfVectorizer|no_transformation|132_entropy_0.63245_RandomForestClassifier'
p503
aS'38_0.570556103297_0.438798860864_0.745709486784_2.71335197566_210_LatentDirichletAllocation|no_transformation|l1_0.09676_155_LogisticRegression'
p504
aS'27_0.325849859493_0.115145935605_0.773172285763_25.8633829034_180_LatentDirichletAllocation|no_transformation|146_entropy_0.48966_RandomForestClassifier'
p505
aS'475_1_CountVectorizer|no_transformation|133_gini_0.90653_RandomForestClassifier'
p506
asI42
(lp507
S'332_8_CountVectorizer|no_transformation|0.894696929444_entropy_random_DecisionTreeClassifier'
p508
aS'989_6_l2_TfidfVectorizer|no_transformation|3_distance_minkowski_1_KNeighborsClassifier'
p509
aS'553_3_CountVectorizer|no_transformation|l2_0.00576_190_LogisticRegression'
p510
aS'4000_l2_HashingVectorizer|no_transformation|l1_0.09225_90_LogisticRegression'
p511
aS'31_0.687309104434_0.772347105202_0.571434858783_13.7318093702_210_LatentDirichletAllocation|no_transformation|l1_0.08317_363_LogisticRegression'
p512
aS'10000_l2_HashingVectorizer|no_transformation|l1_0.04571_124_LogisticRegression'
p513
aS'34_0.0873851256978_0.715207018617_0.661932062832_3.15469273609_250_LatentDirichletAllocation|no_transformation|l2_0.09392_482_LogisticRegression'
p514
aS'42_0.125204121665_0.915242653675_0.995555812201_28.8547234237_250_LatentDirichletAllocation|no_transformation|GaussianNB'
p515
aS'363_1_CountVectorizer|no_transformation|90_entropy_0.69495_RandomForestClassifier'
p516
aS'28_0.437649493501_0.205705822199_0.655403234643_7.34073035659_210_LatentDirichletAllocation|no_transformation|l1_0.03458_358_LogisticRegression'
p517
aS'912_8_None_TfidfVectorizer|no_transformation|51_entropy_0.40905_RandomForestClassifier'
p518
asI43
(lp519
S'42_0.127178077496_0.73774449837_0.940894321402_20.221015319_210_LatentDirichletAllocation|no_transformation|0.616350427475_gini_best_DecisionTreeClassifier'
p520
aS'400_2_l1_TfidfVectorizer|no_transformation|96_gini_0.83457_RandomForestClassifier'
p521
aS'20_0.590899284126_0.717301637184_0.84399617676_5.57970563046_210_LatentDirichletAllocation|no_transformation|l1_0.05579_375_LogisticRegression'
p522
aS'102_10_CountVectorizer|no_transformation|82_entropy_0.63106_RandomForestClassifier'
p523
aS'39_0.0599374132436_0.605937164844_0.576128871305_40.9861008825_300_LatentDirichletAllocation|no_transformation|0.508905808521_entropy_best_DecisionTreeClassifier'
p524
aS'30_0.627339654418_0.0374595092545_0.771717335322_5.24498186774_150_LatentDirichletAllocation|no_transformation|2_uniform_chebyshev_2_KNeighborsClassifier'
p525
aS'286_6_CountVectorizer|no_transformation|0.128378197082_entropy_random_DecisionTreeClassifier'
p526
aS'941_3_l2_TfidfVectorizer|no_transformation|6_uniform_chebyshev_2_KNeighborsClassifier'
p527
aS'349_4_l1_TfidfVectorizer|no_transformation|0.299679812922_gini_best_DecisionTreeClassifier'
p528
aS'833_3_l2_TfidfVectorizer|no_transformation|0.710893096251_gini_best_DecisionTreeClassifier'
p529
aS'352_9_l1_TfidfVectorizer|no_transformation|l1_0.08447_29_LogisticRegression'
p530
asI44
(lp531
S'658_7_CountVectorizer|no_transformation|0.953737263346_gini_best_DecisionTreeClassifier'
p532
aS'19_0.163440381125_0.54873999777_0.649047276517_34.2503609796_250_LatentDirichletAllocation|no_transformation|0.099094490597_gini_best_DecisionTreeClassifier'
p533
aS'477_2_CountVectorizer|no_transformation|92_gini_0.56802_RandomForestClassifier'
p534
aS'508_3_l2_TfidfVectorizer|no_transformation|54_entropy_0.6277_RandomForestClassifier'
p535
aS'636_6_CountVectorizer|no_transformation|83_entropy_0.88426_RandomForestClassifier'
p536
aS'410_2_CountVectorizer|no_transformation|70_entropy_0.73685_RandomForestClassifier'
p537
aS'750_8_CountVectorizer|no_transformation|l2_0.01605_278_LogisticRegression'
p538
aS'842_3_l1_TfidfVectorizer|no_transformation|l2_0.04889_66_LogisticRegression'
p539
aS'41_0.988601965621_0.415471793646_0.943166609973_5.75943993242_300_LatentDirichletAllocation|no_transformation|l1_0.06012_434_LogisticRegression'
p540
aS'257_9_l1_TfidfVectorizer|no_transformation|150_gini_0.56219_RandomForestClassifier'
p541
aS'20_0.0464475326495_0.813838277842_0.948257201876_46.3249350695_300_LatentDirichletAllocation|no_transformation|0.659839967925_gini_best_DecisionTreeClassifier'
p542
asI45
(lp543
S'657_8_l2_TfidfVectorizer|no_transformation|124_gini_0.85408_RandomForestClassifier'
p544
aS'24_0.545618050849_0.308980831064_0.575614721507_5.21019739586_150_LatentDirichletAllocation|no_transformation|l2_0.0334_474_LogisticRegression'
p545
aS'8000_l1_HashingVectorizer|no_transformation|94_gini_0.99157_RandomForestClassifier'
p546
aS'11_0.845637967214_0.0231288384855_0.676087067144_1.35805670956_300_LatentDirichletAllocation|no_transformation|l2_0.09953_278_LogisticRegression'
p547
aS'37_0.0942672658465_0.941311104942_0.969183346971_20.1263171613_300_LatentDirichletAllocation|no_transformation|l2_0.05669_271_LogisticRegression'
p548
aS'165_7_l2_TfidfVectorizer|no_transformation|0.397514331168_gini_random_DecisionTreeClassifier'
p549
aS'614_4_CountVectorizer|no_transformation|l2_0.08139_18_LogisticRegression'
p550
aS'50_0.221961013171_0.809881805777_0.622581598162_43.1602561985_150_LatentDirichletAllocation|no_transformation|21_uniform_minkowski_5_KNeighborsClassifier'
p551
aS'39_0.19754749614_0.0340755675207_0.576382196038_11.6137322391_250_LatentDirichletAllocation|no_transformation|50_gini_0.63684_RandomForestClassifier'
p552
aS'27_0.471093354526_0.0388653123848_0.536945270767_34.0829814951_210_LatentDirichletAllocation|no_transformation|0.160756393576_gini_random_DecisionTreeClassifier'
p553
aS'41_0.393750688151_0.726056655219_0.710211705725_24.9600529303_250_LatentDirichletAllocation|no_transformation|78_gini_0.62391_RandomForestClassifier'
p554
asI46
(lp555
S'307_7_CountVectorizer|no_transformation|138_gini_0.25793_RandomForestClassifier'
p556
aS'26_0.748889677175_0.0152253584559_0.989654157252_39.0617528379_150_LatentDirichletAllocation|no_transformation|0.212707234891_entropy_random_DecisionTreeClassifier'
p557
aS'24_0.408712117584_0.232623865111_0.996180548364_12.8422036828_210_LatentDirichletAllocation|no_transformation|127_entropy_0.23953_RandomForestClassifier'
p558
aS'634_7_CountVectorizer|no_transformation|l2_0.00545_346_LogisticRegression'
p559
aS'633_6_CountVectorizer|no_transformation|l2_0.04344_129_LogisticRegression'
p560
aS'25_0.251969731331_0.525012239019_0.826665135704_36.3325890389_250_LatentDirichletAllocation|no_transformation|l1_0.07663_326_LogisticRegression'
p561
aS'33_0.470946190995_0.978586008009_0.514763278365_32.49003687_180_LatentDirichletAllocation|no_transformation|l2_0.00119_483_LogisticRegression'
p562
aS'20_0.579756134198_0.0964507564672_0.641367397247_16.0847911258_250_LatentDirichletAllocation|no_transformation|73_entropy_0.23469_RandomForestClassifier'
p563
aS'978_7_l2_TfidfVectorizer|no_transformation|133_gini_0.94424_RandomForestClassifier'
p564
aS'18_0.0588606757822_0.31391049485_0.876628018917_39.6794779651_210_LatentDirichletAllocation|no_transformation|l1_0.00485_485_LogisticRegression'
p565
aS'29_0.395957563744_0.0960300580244_0.918945370008_46.0990744833_210_LatentDirichletAllocation|no_transformation|l1_0.05092_495_LogisticRegression'
p566
asI47
(lp567
S'983_9_CountVectorizer|no_transformation|l1_0.00884_438_LogisticRegression'
p568
aS'22_0.0875872648242_0.545894570586_0.673690945526_13.9253808743_250_LatentDirichletAllocation|no_transformation|13_distance_minkowski_14_KNeighborsClassifier'
p569
aS'356_10_l1_TfidfVectorizer|no_transformation|0.931172938057_entropy_random_DecisionTreeClassifier'
p570
aS'31_0.208993129273_0.764912197287_0.83969813325_34.8223718388_150_LatentDirichletAllocation|no_transformation|l1_0.07434_408_LogisticRegression'
p571
aS'31_0.341856232406_0.796549352931_0.868128265751_44.6659346045_150_LatentDirichletAllocation|no_transformation|l1_0.08442_107_LogisticRegression'
p572
aS'8000_None_HashingVectorizer|no_transformation|119_entropy_0.25729_RandomForestClassifier'
p573
aS'897_3_None_TfidfVectorizer|no_transformation|78_gini_0.37462_RandomForestClassifier'
p574
aS'244_5_l1_TfidfVectorizer|no_transformation|0.809059374964_entropy_best_DecisionTreeClassifier'
p575
aS'16_0.489452743606_0.444922221585_0.695403778549_26.9820810455_250_LatentDirichletAllocation|no_transformation|127_gini_0.18429_RandomForestClassifier'
p576
aS'164_8_l1_TfidfVectorizer|no_transformation|115_entropy_0.84359_RandomForestClassifier'
p577
aS'921_5_l2_TfidfVectorizer|no_transformation|81_gini_0.28361_RandomForestClassifier'
p578
asI48
(lp579
S'296_9_CountVectorizer|no_transformation|128_entropy_0.92487_RandomForestClassifier'
p580
aS'792_2_CountVectorizer|no_transformation|l1_0.07984_468_LogisticRegression'
p581
aS'11_0.084888901618_0.496960176184_0.594953069297_24.7051315895_180_LatentDirichletAllocation|no_transformation|20_uniform_minkowski_6_KNeighborsClassifier'
p582
aS'245_7_l2_TfidfVectorizer|no_transformation|80_gini_0.41199_RandomForestClassifier'
p583
aS'428_6_l1_TfidfVectorizer|no_transformation|0.758768805267_entropy_best_DecisionTreeClassifier'
p584
aS'46_0.03930793919_0.982908123059_0.737917051672_28.5935920076_210_LatentDirichletAllocation|no_transformation|0.173033968333_entropy_best_DecisionTreeClassifier'
p585
aS'396_10_None_TfidfVectorizer|no_transformation|l2_0.02781_38_LogisticRegression'
p586
aS'10000_None_HashingVectorizer|no_transformation|l2_0.08028_458_LogisticRegression'
p587
aS'353_5_CountVectorizer|no_transformation|133_gini_0.12741_RandomForestClassifier'
p588
aS'108_8_CountVectorizer|no_transformation|90_entropy_0.90143_RandomForestClassifier'
p589
aS'647_10_l2_TfidfVectorizer|no_transformation|133_entropy_0.81356_RandomForestClassifier'
p590
asI49
(lp591
S'831_3_CountVectorizer|no_transformation|0.779781474277_entropy_random_DecisionTreeClassifier'
p592
aS'45_0.238347787293_0.856671732198_0.588710310318_29.1700786746_210_LatentDirichletAllocation|no_transformation|l2_0.04552_35_LogisticRegression'
p593
aS'848_3_CountVectorizer|no_transformation|l2_0.01967_83_LogisticRegression'
p594
aS'472_7_CountVectorizer|no_transformation|0.315761509692_gini_best_DecisionTreeClassifier'
p595
aS'1000_l1_HashingVectorizer|no_transformation|l2_0.07537_471_LogisticRegression'
p596
aS'432_8_l2_TfidfVectorizer|no_transformation|l2_0.02075_108_LogisticRegression'
p597
aS'850_2_CountVectorizer|no_transformation|130_entropy_0.46271_RandomForestClassifier'
p598
aS'27_0.687236928148_0.939468084369_0.836010213744_41.9597943784_250_LatentDirichletAllocation|no_transformation|13_uniform_minkowski_15_KNeighborsClassifier'
p599
aS'459_5_CountVectorizer|no_transformation|3_uniform_chebyshev_2_KNeighborsClassifier'
p600
aS'40_0.710441357046_0.210147909587_0.664835218285_46.3627939514_150_LatentDirichletAllocation|no_transformation|l2_0.04869_426_LogisticRegression'
p601
aS'524_4_l2_TfidfVectorizer|no_transformation|0.152827325817_gini_random_DecisionTreeClassifier'
p602
asI50
(lp603
S'307_5_l2_TfidfVectorizer|no_transformation|l1_0.02521_51_LogisticRegression'
p604
aS'442_7_l2_TfidfVectorizer|no_transformation|12_uniform_chebyshev_2_KNeighborsClassifier'
p605
aS'997_1_CountVectorizer|no_transformation|62_gini_0.11217_RandomForestClassifier'
p606
aS'26_0.514218190537_0.587933963552_0.589288624278_42.353639259_180_LatentDirichletAllocation|no_transformation|l1_0.0171_483_LogisticRegression'
p607
aS'50_0.834216233463_0.867221298492_0.646109247111_17.1892435708_300_LatentDirichletAllocation|no_transformation|0.628555854985_gini_random_DecisionTreeClassifier'
p608
aS'21_0.948070802987_0.902400350235_0.602784409398_34.7357049337_250_LatentDirichletAllocation|no_transformation|24_uniform_minkowski_8_KNeighborsClassifier'
p609
aS'219_7_CountVectorizer|no_transformation|4_uniform_minkowski_9_KNeighborsClassifier'
p610
aS'16_0.351186572095_0.571562217382_0.610399349806_19.9749674397_150_LatentDirichletAllocation|no_transformation|0.781426417396_entropy_random_DecisionTreeClassifier'
p611
aS'515_2_l1_TfidfVectorizer|no_transformation|l2_0.04092_113_LogisticRegression'
p612
aS'865_3_None_TfidfVectorizer|no_transformation|9_distance_chebyshev_2_KNeighborsClassifier'
p613
aS'15_0.71094785106_0.181859724567_0.618953700552_24.4121636727_150_LatentDirichletAllocation|no_transformation|l2_0.01259_291_LogisticRegression'
p614
asI51
(lp615
S'35_0.382525998942_0.241805100666_0.682140259159_3.12352020423_180_LatentDirichletAllocation|no_transformation|l2_0.00039_351_LogisticRegression'
p616
aS'41_0.679456180249_0.245031571874_0.550248090843_1.47468612273_180_LatentDirichletAllocation|no_transformation|l2_0.00393_43_LogisticRegression'
p617
aS'909_3_CountVectorizer|no_transformation|l1_0.04116_337_LogisticRegression'
p618
aS'22_0.454857829495_0.511973381485_0.945479817051_27.4893427743_210_LatentDirichletAllocation|no_transformation|l2_0.0516_171_LogisticRegression'
p619
aS'996_6_CountVectorizer|no_transformation|72_entropy_0.13053_RandomForestClassifier'
p620
aS'16_0.0424247538773_0.762932044832_0.677165767012_2.78856061991_150_LatentDirichletAllocation|no_transformation|75_gini_0.19004_RandomForestClassifier'
p621
aS'20_0.0547122173721_0.996611210876_0.570798215668_30.26797677_250_LatentDirichletAllocation|no_transformation|l1_0.05766_243_LogisticRegression'
p622
aS'43_0.175620126102_0.270956565542_0.631179408361_14.511074703_180_LatentDirichletAllocation|no_transformation|23_uniform_minkowski_10_KNeighborsClassifier'
p623
aS'30_0.250930646897_0.56702067142_0.936387068024_31.3968598024_150_LatentDirichletAllocation|no_transformation|131_gini_0.51499_RandomForestClassifier'
p624
aS'172_3_l1_TfidfVectorizer|no_transformation|l1_0.06918_128_LogisticRegression'
p625
aS'34_0.73156597141_0.0649389339723_0.87986066851_18.7648582884_300_LatentDirichletAllocation|no_transformation|l2_0.03972_201_LogisticRegression'
p626
asI52
(lp627
S'38_0.488957166579_0.43519717633_0.595963703222_25.7298816712_210_LatentDirichletAllocation|no_transformation|l1_0.06093_244_LogisticRegression'
p628
aS'6000_l1_HashingVectorizer|no_transformation|96_gini_0.50567_RandomForestClassifier'
p629
aS'736_6_l2_TfidfVectorizer|no_transformation|0.77503169907_entropy_random_DecisionTreeClassifier'
p630
aS'44_0.917150947088_0.478376536347_0.986187222002_38.5747927062_300_LatentDirichletAllocation|no_transformation|l1_0.03469_291_LogisticRegression'
p631
aS'765_5_l2_TfidfVectorizer|no_transformation|l2_0.07168_15_LogisticRegression'
p632
aS'22_0.0249990062428_0.109362627004_0.817524017817_23.3366736725_250_LatentDirichletAllocation|no_transformation|0.21966236409_gini_random_DecisionTreeClassifier'
p633
aS'817_6_None_TfidfVectorizer|no_transformation|l2_0.07026_426_LogisticRegression'
p634
aS'591_9_l2_TfidfVectorizer|no_transformation|l1_0.05797_98_LogisticRegression'
p635
aS'15_0.477139135452_0.282544874851_0.676597898551_36.2924320545_210_LatentDirichletAllocation|no_transformation|l1_0.08858_155_LogisticRegression'
p636
aS'47_0.324416997932_0.210444006369_0.626919102556_6.05051007977_180_LatentDirichletAllocation|no_transformation|l2_0.08172_1_LogisticRegression'
p637
aS'17_0.72107868257_0.0660651574726_0.902807581701_19.9468819561_150_LatentDirichletAllocation|no_transformation|24_distance_minkowski_2_KNeighborsClassifier'
p638
asI53
(lp639
S'686_4_CountVectorizer|no_transformation|11_distance_chebyshev_2_KNeighborsClassifier'
p640
aS'14_0.516050747518_0.994966394665_0.631170385321_24.1871941493_210_LatentDirichletAllocation|no_transformation|122_entropy_0.73188_RandomForestClassifier'
p641
aS'458_8_None_TfidfVectorizer|no_transformation|l1_0.09693_264_LogisticRegression'
p642
aS'770_2_l2_TfidfVectorizer|no_transformation|12_uniform_chebyshev_2_KNeighborsClassifier'
p643
aS'361_9_CountVectorizer|no_transformation|19_uniform_chebyshev_2_KNeighborsClassifier'
p644
aS'14_0.00221869229447_0.754747206055_0.743213704294_41.4913172102_300_LatentDirichletAllocation|no_transformation|68_gini_0.96878_RandomForestClassifier'
p645
aS'426_8_CountVectorizer|no_transformation|l1_0.09627_498_LogisticRegression'
p646
aS'441_3_l2_TfidfVectorizer|no_transformation|51_entropy_0.23284_RandomForestClassifier'
p647
aS'29_0.685476711553_0.272144793112_0.966304691353_39.0531747077_180_LatentDirichletAllocation|no_transformation|l2_0.06537_85_LogisticRegression'
p648
aS'42_0.414642658437_0.0799829513333_0.869533137206_2.78728113688_210_LatentDirichletAllocation|no_transformation|l2_0.06126_361_LogisticRegression'
p649
aS'10000_l2_HashingVectorizer|no_transformation|16_uniform_chebyshev_2_KNeighborsClassifier'
p650
asI54
(lp651
S'28_0.00497230048602_0.518428724616_0.754237359959_12.0629534589_250_LatentDirichletAllocation|no_transformation|131_entropy_0.22671_RandomForestClassifier'
p652
aS'920_3_l2_TfidfVectorizer|no_transformation|118_entropy_0.99999_RandomForestClassifier'
p653
aS'617_1_None_TfidfVectorizer|no_transformation|2_distance_chebyshev_2_KNeighborsClassifier'
p654
aS'963_1_None_TfidfVectorizer|no_transformation|0.658626377803_entropy_random_DecisionTreeClassifier'
p655
aS'695_5_l2_TfidfVectorizer|no_transformation|l2_0.0237_417_LogisticRegression'
p656
aS'23_0.0386455110799_0.284557595452_0.781224616441_4.23627305531_180_LatentDirichletAllocation|no_transformation|83_gini_0.40396_RandomForestClassifier'
p657
aS'48_0.616274346126_0.951081210708_0.838647887112_17.312012273_300_LatentDirichletAllocation|no_transformation|l1_0.01903_356_LogisticRegression'
p658
aS'181_5_l2_TfidfVectorizer|no_transformation|23_distance_minkowski_9_KNeighborsClassifier'
p659
aS'1000_l1_HashingVectorizer|no_transformation|l2_0.09826_398_LogisticRegression'
p660
aS'40_0.887951386372_0.229382453836_0.788026486436_42.1991719377_210_LatentDirichletAllocation|no_transformation|0.0654267663193_gini_random_DecisionTreeClassifier'
p661
aS'995_9_CountVectorizer|no_transformation|0.828927270297_gini_best_DecisionTreeClassifier'
p662
asI55
(lp663
S'45_0.221308258463_0.285256168564_0.737883547106_4.16595854696_180_LatentDirichletAllocation|no_transformation|137_gini_0.05388_RandomForestClassifier'
p664
aS'10_0.0643199943935_0.941846104744_0.963688106053_16.7003069429_300_LatentDirichletAllocation|no_transformation|0.986945826901_gini_best_DecisionTreeClassifier'
p665
aS'16_0.528081935681_0.603846084095_0.941480768721_11.9938482178_150_LatentDirichletAllocation|no_transformation|18_distance_minkowski_15_KNeighborsClassifier'
p666
aS'31_0.393867136405_0.00785014445853_0.880350888489_17.010191514_150_LatentDirichletAllocation|no_transformation|2_distance_chebyshev_2_KNeighborsClassifier'
p667
aS'25_0.361928399539_0.539725973597_0.530145039915_10.8433933945_150_LatentDirichletAllocation|no_transformation|l2_0.06663_280_LogisticRegression'
p668
aS'232_7_CountVectorizer|no_transformation|l1_0.09806_453_LogisticRegression'
p669
aS'44_0.0437452823827_0.312831185786_0.957844632042_25.522607399_250_LatentDirichletAllocation|no_transformation|0.736425947307_gini_best_DecisionTreeClassifier'
p670
aS'460_9_l1_TfidfVectorizer|no_transformation|6_distance_minkowski_4_KNeighborsClassifier'
p671
aS'14_0.804904267155_0.269288788963_0.533915329216_7.64776538997_150_LatentDirichletAllocation|no_transformation|123_entropy_0.73646_RandomForestClassifier'
p672
aS'29_0.252133326016_0.133208271082_0.730392835102_46.1084402853_150_LatentDirichletAllocation|no_transformation|l2_0.0926_166_LogisticRegression'
p673
aS'223_5_l2_TfidfVectorizer|no_transformation|l1_0.00143_70_LogisticRegression'
p674
asI56
(lp675
S'28_0.833582562703_0.192645348265_0.713664789677_18.581545375_300_LatentDirichletAllocation|no_transformation|24_distance_chebyshev_2_KNeighborsClassifier'
p676
aS'854_6_CountVectorizer|no_transformation|88_gini_0.08753_RandomForestClassifier'
p677
aS'45_0.978923782257_0.253143150852_0.946260615145_31.8453603144_300_LatentDirichletAllocation|no_transformation|0.5918692029_gini_best_DecisionTreeClassifier'
p678
aS'983_8_CountVectorizer|no_transformation|0.493973112015_entropy_best_DecisionTreeClassifier'
p679
aS'341_8_l1_TfidfVectorizer|no_transformation|7_uniform_chebyshev_2_KNeighborsClassifier'
p680
aS'835_4_None_TfidfVectorizer|no_transformation|108_entropy_0.60793_RandomForestClassifier'
p681
aS'27_0.15281047463_0.548547329974_0.637157396076_47.8252518627_250_LatentDirichletAllocation|no_transformation|l2_0.07583_232_LogisticRegression'
p682
aS'106_8_l1_TfidfVectorizer|no_transformation|l2_0.08367_276_LogisticRegression'
p683
aS'797_10_l2_TfidfVectorizer|no_transformation|0.930620333389_gini_random_DecisionTreeClassifier'
p684
aS'19_0.940895291852_0.588255550021_0.648761752939_6.98905128564_300_LatentDirichletAllocation|no_transformation|149_entropy_0.73291_RandomForestClassifier'
p685
aS'48_0.539779418982_0.202866357533_0.73201559949_22.8525907171_150_LatentDirichletAllocation|no_transformation|0.131318850299_gini_best_DecisionTreeClassifier'
p686
asI57
(lp687
S'15_0.695752315051_0.899170645949_0.688363296168_18.9723437936_180_LatentDirichletAllocation|no_transformation|GaussianNB'
p688
aS'374_8_l2_TfidfVectorizer|no_transformation|GaussianNB'
p689
aS'338_3_CountVectorizer|no_transformation|84_gini_0.01905_RandomForestClassifier'
p690
aS'38_0.301280312068_0.955391816114_0.644383404543_28.6180311649_250_LatentDirichletAllocation|no_transformation|65_gini_0.99223_RandomForestClassifier'
p691
aS'45_0.542343344772_0.458124896745_0.747852620745_14.8991381946_150_LatentDirichletAllocation|no_transformation|15_distance_minkowski_15_KNeighborsClassifier'
p692
aS'881_9_l2_TfidfVectorizer|no_transformation|l2_0.06793_468_LogisticRegression'
p693
aS'27_0.653465489159_0.252870133466_0.625477715783_16.4989068097_150_LatentDirichletAllocation|no_transformation|20_distance_chebyshev_2_KNeighborsClassifier'
p694
aS'476_9_l2_TfidfVectorizer|no_transformation|15_uniform_chebyshev_2_KNeighborsClassifier'
p695
aS'21_0.351642331115_0.45464135463_0.54507266207_11.7681115405_210_LatentDirichletAllocation|no_transformation|3_uniform_minkowski_8_KNeighborsClassifier'
p696
aS'148_1_CountVectorizer|no_transformation|24_uniform_chebyshev_2_KNeighborsClassifier'
p697
aS'49_0.595388531919_0.628694270701_0.840240226195_48.640410418_180_LatentDirichletAllocation|no_transformation|103_entropy_0.60621_RandomForestClassifier'
p698
asI58
(lp699
S'41_0.266134106373_0.94797188504_0.585372010177_1.30838575482_180_LatentDirichletAllocation|no_transformation|134_entropy_0.46583_RandomForestClassifier'
p700
aS'18_0.651356788208_0.870120879063_0.795631151881_31.2366226507_250_LatentDirichletAllocation|no_transformation|l1_0.09753_409_LogisticRegression'
p701
aS'908_4_l2_TfidfVectorizer|no_transformation|l2_0.04184_35_LogisticRegression'
p702
aS'713_8_l1_TfidfVectorizer|no_transformation|0.373127295278_gini_best_DecisionTreeClassifier'
p703
aS'1000_l1_HashingVectorizer|no_transformation|l1_0.04761_385_LogisticRegression'
p704
aS'178_8_CountVectorizer|no_transformation|l2_0.08986_150_LogisticRegression'
p705
aS'33_0.598045988343_0.818603759771_0.788149617703_13.4815602926_210_LatentDirichletAllocation|no_transformation|l2_0.08493_60_LogisticRegression'
p706
aS'724_7_l1_TfidfVectorizer|no_transformation|12_distance_minkowski_1_KNeighborsClassifier'
p707
aS'29_0.272906261531_0.930120130054_0.660024014518_45.2721327137_250_LatentDirichletAllocation|no_transformation|10_uniform_chebyshev_2_KNeighborsClassifier'
p708
aS'600_2_l2_TfidfVectorizer|no_transformation|l1_0.07357_108_LogisticRegression'
p709
aS'800_2_None_TfidfVectorizer|no_transformation|0.827210900517_entropy_random_DecisionTreeClassifier'
p710
asI59
(lp711
S'48_0.046576623081_0.711214099836_0.691271644383_10.4013006237_210_LatentDirichletAllocation|no_transformation|l1_0.09445_208_LogisticRegression'
p712
aS'364_4_None_TfidfVectorizer|no_transformation|l2_0.00558_22_LogisticRegression'
p713
aS'328_8_None_TfidfVectorizer|no_transformation|16_uniform_minkowski_10_KNeighborsClassifier'
p714
aS'136_8_CountVectorizer|no_transformation|61_gini_0.86891_RandomForestClassifier'
p715
aS'630_10_l1_TfidfVectorizer|no_transformation|21_uniform_chebyshev_2_KNeighborsClassifier'
p716
aS'274_9_CountVectorizer|no_transformation|144_gini_0.55549_RandomForestClassifier'
p717
aS'592_2_None_TfidfVectorizer|no_transformation|l2_0.08543_141_LogisticRegression'
p718
aS'12_0.720480711696_0.3868629714_0.801382930187_27.7363456821_300_LatentDirichletAllocation|no_transformation|63_gini_0.48254_RandomForestClassifier'
p719
aS'46_0.34156559625_0.70478311712_0.987738019925_24.0861251303_300_LatentDirichletAllocation|no_transformation|60_entropy_0.45345_RandomForestClassifier'
p720
aS'29_0.262702731976_0.728685018534_0.960864151459_17.5132431398_300_LatentDirichletAllocation|no_transformation|l1_0.09373_365_LogisticRegression'
p721
aS'346_4_CountVectorizer|no_transformation|63_entropy_0.88318_RandomForestClassifier'
p722
asI60
(lp723
S'458_5_l1_TfidfVectorizer|no_transformation|l1_0.0344_411_LogisticRegression'
p724
aS'388_9_CountVectorizer|no_transformation|60_gini_0.67204_RandomForestClassifier'
p725
aS'274_6_None_TfidfVectorizer|no_transformation|10_uniform_chebyshev_2_KNeighborsClassifier'
p726
aS'456_5_CountVectorizer|no_transformation|99_entropy_0.96556_RandomForestClassifier'
p727
aS'43_0.532571060692_0.0659445997345_0.796366322844_33.029330561_150_LatentDirichletAllocation|no_transformation|l1_0.0283_226_LogisticRegression'
p728
aS'167_10_l2_TfidfVectorizer|no_transformation|0.544873972895_gini_random_DecisionTreeClassifier'
p729
aS'21_0.890147109488_0.0253939236189_0.707112322359_47.9100433764_300_LatentDirichletAllocation|no_transformation|l2_0.08046_294_LogisticRegression'
p730
aS'45_0.201705607506_0.259173973378_0.53486783987_4.42293516395_150_LatentDirichletAllocation|no_transformation|148_gini_0.0269_RandomForestClassifier'
p731
aS'106_8_l1_TfidfVectorizer|no_transformation|143_entropy_0.27036_RandomForestClassifier'
p732
aS'929_10_CountVectorizer|no_transformation|l1_0.03888_128_LogisticRegression'
p733
aS'433_5_CountVectorizer|no_transformation|l1_0.01332_44_LogisticRegression'
p734
asI61
(lp735
S'27_0.503989679834_0.684315642825_0.895018144523_34.7565372416_250_LatentDirichletAllocation|no_transformation|135_entropy_0.5083_RandomForestClassifier'
p736
aS'462_2_l1_TfidfVectorizer|no_transformation|50_gini_0.73948_RandomForestClassifier'
p737
aS'274_8_None_TfidfVectorizer|no_transformation|125_entropy_0.67284_RandomForestClassifier'
p738
aS'817_6_None_TfidfVectorizer|no_transformation|19_distance_chebyshev_2_KNeighborsClassifier'
p739
aS'2000_l2_HashingVectorizer|no_transformation|146_entropy_0.92832_RandomForestClassifier'
p740
aS'2000_l1_HashingVectorizer|no_transformation|69_entropy_0.41039_RandomForestClassifier'
p741
aS'403_2_l1_TfidfVectorizer|no_transformation|10_uniform_chebyshev_2_KNeighborsClassifier'
p742
aS'659_10_l2_TfidfVectorizer|no_transformation|24_uniform_chebyshev_2_KNeighborsClassifier'
p743
aS'27_0.531578541102_0.182124550436_0.604598897801_18.8096872673_210_LatentDirichletAllocation|no_transformation|l1_0.01335_270_LogisticRegression'
p744
aS'709_1_None_TfidfVectorizer|no_transformation|0.794252710982_entropy_random_DecisionTreeClassifier'
p745
aS'13_0.0573315328447_0.94110925157_0.844573935093_29.1808403311_250_LatentDirichletAllocation|no_transformation|83_entropy_0.0466_RandomForestClassifier'
p746
asI62
(lp747
S'11_0.100840097539_0.130134953785_0.895170555501_42.6384583353_180_LatentDirichletAllocation|no_transformation|71_entropy_0.37962_RandomForestClassifier'
p748
aS'721_1_l1_TfidfVectorizer|no_transformation|17_uniform_minkowski_3_KNeighborsClassifier'
p749
aS'11_0.256016169979_0.486691887456_0.586685501319_28.263098016_150_LatentDirichletAllocation|no_transformation|l1_0.06079_128_LogisticRegression'
p750
aS'911_2_CountVectorizer|no_transformation|l2_0.07429_193_LogisticRegression'
p751
aS'39_0.323486223656_0.635847068606_0.618915263819_29.7115430582_180_LatentDirichletAllocation|no_transformation|86_entropy_0.11332_RandomForestClassifier'
p752
aS'31_0.726020065286_0.469299530463_0.65130427711_39.557022066_150_LatentDirichletAllocation|no_transformation|119_entropy_0.91822_RandomForestClassifier'
p753
aS'437_8_CountVectorizer|no_transformation|l1_0.05434_206_LogisticRegression'
p754
aS'46_0.731963992827_0.258816118315_0.651001361595_43.2633813828_150_LatentDirichletAllocation|no_transformation|l1_0.05509_325_LogisticRegression'
p755
aS'619_10_l2_TfidfVectorizer|no_transformation|l1_0.06319_172_LogisticRegression'
p756
aS'447_1_l1_TfidfVectorizer|no_transformation|l2_0.00065_132_LogisticRegression'
p757
aS'403_10_None_TfidfVectorizer|no_transformation|0.28523724285_gini_random_DecisionTreeClassifier'
p758
asI63
(lp759
S'154_8_None_TfidfVectorizer|no_transformation|70_gini_0.39499_RandomForestClassifier'
p760
aS'873_4_CountVectorizer|no_transformation|l2_0.07282_479_LogisticRegression'
p761
aS'33_0.248619641237_0.120608615868_0.790873017407_17.3159880807_300_LatentDirichletAllocation|no_transformation|133_entropy_0.71955_RandomForestClassifier'
p762
aS'24_0.697814949781_0.367234207395_0.845786796269_29.1280393148_210_LatentDirichletAllocation|no_transformation|l2_0.0067_64_LogisticRegression'
p763
aS'760_1_l1_TfidfVectorizer|no_transformation|0.0501858703033_entropy_random_DecisionTreeClassifier'
p764
aS'294_9_l1_TfidfVectorizer|no_transformation|l1_0.04_438_LogisticRegression'
p765
aS'289_10_l2_TfidfVectorizer|no_transformation|0.911566545776_gini_random_DecisionTreeClassifier'
p766
aS'311_8_l1_TfidfVectorizer|no_transformation|65_entropy_0.90406_RandomForestClassifier'
p767
aS'43_0.610694363928_0.569489260119_0.751132576367_29.4098132387_180_LatentDirichletAllocation|no_transformation|l2_0.09824_39_LogisticRegression'
p768
aS'34_0.763585213016_0.24082912157_0.67880361303_40.0929478548_250_LatentDirichletAllocation|no_transformation|0.75941980647_entropy_best_DecisionTreeClassifier'
p769
aS'2000_l1_HashingVectorizer|no_transformation|63_entropy_0.89766_RandomForestClassifier'
p770
asI64
(lp771
S'747_10_CountVectorizer|no_transformation|0.596385586599_entropy_random_DecisionTreeClassifier'
p772
aS'28_0.460765965451_0.953911641949_0.73347806773_11.2541113981_180_LatentDirichletAllocation|no_transformation|0.0806396690088_entropy_best_DecisionTreeClassifier'
p773
aS'960_10_l2_TfidfVectorizer|no_transformation|140_entropy_0.4655_RandomForestClassifier'
p774
aS'28_0.0475935680273_0.0421557432148_0.719636813542_33.0426454407_300_LatentDirichletAllocation|no_transformation|129_gini_0.10291_RandomForestClassifier'
p775
aS'709_9_CountVectorizer|no_transformation|l2_0.03328_254_LogisticRegression'
p776
aS'644_2_None_TfidfVectorizer|no_transformation|80_gini_0.5122_RandomForestClassifier'
p777
aS'30_0.946281166216_0.736115922995_0.720431803411_18.6124134681_300_LatentDirichletAllocation|no_transformation|l2_0.01142_119_LogisticRegression'
p778
aS'12_0.245772789383_0.177545803064_0.608447373235_29.4509235176_300_LatentDirichletAllocation|no_transformation|l2_0.05341_280_LogisticRegression'
p779
aS'34_0.944334257601_0.236247903943_0.893214104928_16.0718483132_250_LatentDirichletAllocation|no_transformation|88_gini_0.97946_RandomForestClassifier'
p780
aS'238_2_None_TfidfVectorizer|no_transformation|122_entropy_0.55442_RandomForestClassifier'
p781
aS'232_8_None_TfidfVectorizer|no_transformation|137_gini_0.1292_RandomForestClassifier'
p782
asI65
(lp783
S'572_8_CountVectorizer|no_transformation|95_entropy_0.93239_RandomForestClassifier'
p784
aS'42_0.961696567309_0.305217461904_0.948770181337_17.8663475893_300_LatentDirichletAllocation|no_transformation|0.952164525021_gini_random_DecisionTreeClassifier'
p785
aS'591_9_CountVectorizer|no_transformation|l2_0.01367_180_LogisticRegression'
p786
aS'419_4_CountVectorizer|no_transformation|69_gini_0.86986_RandomForestClassifier'
p787
aS'4000_l2_HashingVectorizer|no_transformation|l1_0.03746_235_LogisticRegression'
p788
aS'328_1_CountVectorizer|no_transformation|l2_0.05723_483_LogisticRegression'
p789
aS'778_4_CountVectorizer|no_transformation|l1_0.05364_63_LogisticRegression'
p790
aS'389_3_CountVectorizer|no_transformation|80_gini_0.02878_RandomForestClassifier'
p791
aS'13_0.819861046223_0.640011197302_0.765033978718_1.26409863959_210_LatentDirichletAllocation|no_transformation|l1_0.07967_70_LogisticRegression'
p792
aS'21_0.809743469165_0.392095095645_0.812927182448_30.4411958627_250_LatentDirichletAllocation|no_transformation|110_entropy_0.95129_RandomForestClassifier'
p793
aS'154_9_CountVectorizer|no_transformation|l2_0.07858_10_LogisticRegression'
p794
asI66
(lp795
S'10_0.261926419777_0.511752510493_0.925102510646_16.6700525343_150_LatentDirichletAllocation|no_transformation|l2_0.00305_135_LogisticRegression'
p796
aS'589_10_CountVectorizer|no_transformation|142_entropy_0.44574_RandomForestClassifier'
p797
aS'736_8_CountVectorizer|no_transformation|l1_0.06185_144_LogisticRegression'
p798
aS'881_7_l2_TfidfVectorizer|no_transformation|GaussianNB'
p799
aS'43_0.646145566283_0.544787933182_0.943031278129_11.7478391809_180_LatentDirichletAllocation|no_transformation|l1_0.02427_223_LogisticRegression'
p800
aS'48_0.585364542073_0.677968896742_0.596155678624_3.40725607134_180_LatentDirichletAllocation|no_transformation|140_entropy_0.05408_RandomForestClassifier'
p801
aS'168_10_CountVectorizer|no_transformation|0.801782670932_entropy_random_DecisionTreeClassifier'
p802
aS'275_2_l1_TfidfVectorizer|no_transformation|l1_0.0887_472_LogisticRegression'
p803
aS'16_0.262847391817_0.502113021983_0.856990622502_15.1096464232_150_LatentDirichletAllocation|no_transformation|83_entropy_0.17859_RandomForestClassifier'
p804
aS'40_0.211409860165_0.457454681491_0.989944253066_37.9075624945_180_LatentDirichletAllocation|no_transformation|83_entropy_0.69586_RandomForestClassifier'
p805
aS'18_0.0316988451347_0.0893724976506_0.713088149083_35.4453576329_150_LatentDirichletAllocation|no_transformation|l1_0.05898_147_LogisticRegression'
p806
asI67
(lp807
S'797_1_None_TfidfVectorizer|no_transformation|0.580595484261_gini_random_DecisionTreeClassifier'
p808
aS'33_0.753040307817_0.92592165055_0.570557003308_15.8363802356_300_LatentDirichletAllocation|no_transformation|0.131154773112_gini_random_DecisionTreeClassifier'
p809
aS'30_0.592198324641_0.11012769682_0.603048709836_10.3035216984_150_LatentDirichletAllocation|no_transformation|140_entropy_0.14888_RandomForestClassifier'
p810
aS'908_1_l1_TfidfVectorizer|no_transformation|0.680788554398_gini_random_DecisionTreeClassifier'
p811
aS'136_3_l1_TfidfVectorizer|no_transformation|0.242569170635_entropy_best_DecisionTreeClassifier'
p812
aS'31_0.00763830410879_0.0378233012496_0.902691985318_22.0124975727_150_LatentDirichletAllocation|no_transformation|l1_0.0183_323_LogisticRegression'
p813
aS'1000_l2_HashingVectorizer|no_transformation|l1_0.01014_361_LogisticRegression'
p814
aS'992_6_CountVectorizer|no_transformation|147_gini_0.73842_RandomForestClassifier'
p815
aS'42_0.398234858539_0.314757027229_0.997239979002_13.9598182863_210_LatentDirichletAllocation|no_transformation|143_entropy_0.77987_RandomForestClassifier'
p816
aS'44_0.0781173896618_0.739079134733_0.534895697195_20.5984099177_210_LatentDirichletAllocation|no_transformation|0.290645892309_entropy_best_DecisionTreeClassifier'
p817
aS'793_7_CountVectorizer|no_transformation|l1_0.0324_163_LogisticRegression'
p818
asI68
(lp819
S'23_0.655269504666_0.238504747357_0.533363845961_3.51829406278_250_LatentDirichletAllocation|no_transformation|l1_0.00653_29_LogisticRegression'
p820
aS'37_0.0796123902082_0.859482451108_0.699168033128_40.7817028568_250_LatentDirichletAllocation|no_transformation|l1_0.08459_492_LogisticRegression'
p821
aS'23_0.17987785482_0.910381216263_0.911969674935_42.7132510699_250_LatentDirichletAllocation|no_transformation|15_distance_chebyshev_2_KNeighborsClassifier'
p822
aS'4000_l2_HashingVectorizer|no_transformation|l1_0.08013_135_LogisticRegression'
p823
aS'642_10_CountVectorizer|no_transformation|l1_0.08703_275_LogisticRegression'
p824
aS'500_7_CountVectorizer|no_transformation|58_entropy_0.59625_RandomForestClassifier'
p825
aS'37_0.112855746252_0.813206021654_0.779765240066_7.1651903491_210_LatentDirichletAllocation|no_transformation|80_gini_0.89225_RandomForestClassifier'
p826
aS'662_6_l2_TfidfVectorizer|no_transformation|115_gini_0.10029_RandomForestClassifier'
p827
aS'452_6_CountVectorizer|no_transformation|l2_0.00106_488_LogisticRegression'
p828
aS'48_0.621916161278_0.196486508042_0.739694726373_22.7151257271_210_LatentDirichletAllocation|no_transformation|4_distance_minkowski_2_KNeighborsClassifier'
p829
aS'176_8_CountVectorizer|no_transformation|17_uniform_minkowski_7_KNeighborsClassifier'
p830
asI69
(lp831
S'21_0.148336065035_0.240976372195_0.983875901346_28.6619684053_210_LatentDirichletAllocation|no_transformation|50_entropy_0.07911_RandomForestClassifier'
p832
aS'6000_l2_HashingVectorizer|no_transformation|74_gini_0.97339_RandomForestClassifier'
p833
aS'13_0.304825693019_0.98931695728_0.555450859555_22.3392200211_300_LatentDirichletAllocation|no_transformation|GaussianNB'
p834
aS'26_0.0544956273305_0.739441708734_0.551617677032_23.2671723143_150_LatentDirichletAllocation|no_transformation|0.387851544296_gini_random_DecisionTreeClassifier'
p835
aS'609_7_l1_TfidfVectorizer|no_transformation|56_gini_0.14014_RandomForestClassifier'
p836
aS'46_0.0986296273685_0.367722291135_0.742535465935_28.4555408127_210_LatentDirichletAllocation|no_transformation|l1_0.09922_246_LogisticRegression'
p837
aS'17_0.833340805915_0.600799233072_0.532361928831_11.8282576366_150_LatentDirichletAllocation|no_transformation|l2_0.00285_467_LogisticRegression'
p838
aS'14_0.885348782122_0.139812453232_0.668487178424_25.2255531176_210_LatentDirichletAllocation|no_transformation|l1_0.06675_204_LogisticRegression'
p839
aS'414_9_l2_TfidfVectorizer|no_transformation|0.690706611806_gini_best_DecisionTreeClassifier'
p840
aS'42_0.507667617155_0.949541215992_0.762880507781_38.9104858624_210_LatentDirichletAllocation|no_transformation|0.565916964558_entropy_random_DecisionTreeClassifier'
p841
aS'18_0.541374487507_0.737137988972_0.739341220501_8.99524567227_180_LatentDirichletAllocation|no_transformation|l1_0.05499_459_LogisticRegression'
p842
asI70
(lp843
S'125_3_l2_TfidfVectorizer|no_transformation|89_gini_0.53613_RandomForestClassifier'
p844
aS'786_5_CountVectorizer|no_transformation|94_gini_0.5245_RandomForestClassifier'
p845
aS'706_2_CountVectorizer|no_transformation|l2_0.03698_331_LogisticRegression'
p846
aS'946_5_None_TfidfVectorizer|no_transformation|l1_0.09741_216_LogisticRegression'
p847
aS'938_4_CountVectorizer|no_transformation|149_entropy_0.75254_RandomForestClassifier'
p848
aS'475_9_l1_TfidfVectorizer|no_transformation|134_gini_0.14149_RandomForestClassifier'
p849
aS'397_2_CountVectorizer|no_transformation|124_entropy_0.36119_RandomForestClassifier'
p850
aS'287_2_CountVectorizer|no_transformation|60_gini_0.12289_RandomForestClassifier'
p851
aS'6000_l2_HashingVectorizer|no_transformation|140_gini_0.22929_RandomForestClassifier'
p852
aS'20_0.46140972103_0.518604903844_0.763436595468_22.3335264316_210_LatentDirichletAllocation|no_transformation|63_gini_0.11969_RandomForestClassifier'
p853
aS'16_0.457743593718_0.899099954449_0.570404680645_6.50518126209_150_LatentDirichletAllocation|no_transformation|0.0864089368571_entropy_random_DecisionTreeClassifier'
p854
asI71
(lp855
S'37_0.579010372239_0.690081879105_0.940976498851_32.3241789964_150_LatentDirichletAllocation|no_transformation|12_uniform_chebyshev_2_KNeighborsClassifier'
p856
aS'786_2_CountVectorizer|no_transformation|0.427779183203_gini_random_DecisionTreeClassifier'
p857
aS'712_9_CountVectorizer|no_transformation|0.525759578671_gini_best_DecisionTreeClassifier'
p858
aS'46_0.450491043724_0.265514347368_0.566177455587_10.3809651204_150_LatentDirichletAllocation|no_transformation|137_entropy_0.59725_RandomForestClassifier'
p859
aS'417_10_l1_TfidfVectorizer|no_transformation|58_entropy_0.761_RandomForestClassifier'
p860
aS'8000_None_HashingVectorizer|no_transformation|0.231053502085_gini_random_DecisionTreeClassifier'
p861
aS'678_6_l1_TfidfVectorizer|no_transformation|l2_0.03994_356_LogisticRegression'
p862
aS'316_4_CountVectorizer|no_transformation|12_distance_minkowski_6_KNeighborsClassifier'
p863
aS'928_1_l1_TfidfVectorizer|no_transformation|0.0966824494497_entropy_best_DecisionTreeClassifier'
p864
aS'45_0.255529985801_0.598400488131_0.935478051828_43.4534048682_150_LatentDirichletAllocation|no_transformation|120_gini_0.18323_RandomForestClassifier'
p865
aS'38_0.902267438573_0.655130083356_0.968771432359_27.3824957904_300_LatentDirichletAllocation|no_transformation|l2_0.01084_391_LogisticRegression'
p866
asI72
(lp867
S'21_0.664581164016_0.974585012872_0.793726761346_47.6188010463_150_LatentDirichletAllocation|no_transformation|l2_0.08548_165_LogisticRegression'
p868
aS'37_0.716411886165_0.408234174536_0.640470320943_34.7604338277_150_LatentDirichletAllocation|no_transformation|144_gini_0.38074_RandomForestClassifier'
p869
aS'39_0.169031940073_0.288907710206_0.985001095094_5.42354920271_180_LatentDirichletAllocation|no_transformation|0.108723111781_gini_random_DecisionTreeClassifier'
p870
aS'759_5_CountVectorizer|no_transformation|l1_0.09704_108_LogisticRegression'
p871
aS'48_0.4594171952_0.85152419893_0.838679298822_40.8169914709_300_LatentDirichletAllocation|no_transformation|0.796532639609_gini_best_DecisionTreeClassifier'
p872
aS'8000_l2_HashingVectorizer|no_transformation|l1_0.03235_160_LogisticRegression'
p873
aS'600_5_None_TfidfVectorizer|no_transformation|l1_0.09832_269_LogisticRegression'
p874
aS'34_0.763085289873_0.226872776131_0.927834329568_35.2802748925_210_LatentDirichletAllocation|no_transformation|0.289776753998_gini_random_DecisionTreeClassifier'
p875
aS'184_6_CountVectorizer|no_transformation|108_entropy_0.85185_RandomForestClassifier'
p876
aS'358_6_None_TfidfVectorizer|no_transformation|19_distance_minkowski_11_KNeighborsClassifier'
p877
aS'49_0.253909234721_0.682071010726_0.799129941724_8.06504733989_180_LatentDirichletAllocation|no_transformation|63_gini_0.95295_RandomForestClassifier'
p878
asI73
(lp879
S'36_0.237174806414_0.913387525683_0.713200415626_23.2366306784_150_LatentDirichletAllocation|no_transformation|l1_0.01501_187_LogisticRegression'
p880
aS'27_0.93292198061_0.305118525156_0.660592243254_49.2145429602_180_LatentDirichletAllocation|no_transformation|GaussianNB'
p881
aS'103_2_CountVectorizer|no_transformation|l1_0.08728_495_LogisticRegression'
p882
aS'804_1_l1_TfidfVectorizer|no_transformation|l1_0.07596_468_LogisticRegression'
p883
aS'373_6_l1_TfidfVectorizer|no_transformation|105_gini_0.10104_RandomForestClassifier'
p884
aS'18_0.633200740797_0.369725355962_0.918950304698_41.1567888065_150_LatentDirichletAllocation|no_transformation|57_gini_0.59009_RandomForestClassifier'
p885
aS'725_9_CountVectorizer|no_transformation|l1_0.02648_136_LogisticRegression'
p886
aS'23_0.885311117329_0.4065067153_0.826987619295_48.4196834473_180_LatentDirichletAllocation|no_transformation|0.880722781089_entropy_random_DecisionTreeClassifier'
p887
aS'120_9_CountVectorizer|no_transformation|l1_0.02257_338_LogisticRegression'
p888
aS'412_1_l2_TfidfVectorizer|no_transformation|87_gini_0.26927_RandomForestClassifier'
p889
aS'22_0.891369752926_0.179568172896_0.792696270072_26.3088092595_150_LatentDirichletAllocation|no_transformation|16_distance_minkowski_13_KNeighborsClassifier'
p890
asI74
(lp891
S'238_3_None_TfidfVectorizer|no_transformation|l2_0.03935_357_LogisticRegression'
p892
aS'39_0.442504819546_0.14211268195_0.800248048129_8.39881912092_180_LatentDirichletAllocation|no_transformation|65_gini_0.12067_RandomForestClassifier'
p893
aS'782_9_None_TfidfVectorizer|no_transformation|0.584004632608_gini_random_DecisionTreeClassifier'
p894
aS'564_3_None_TfidfVectorizer|no_transformation|4_distance_minkowski_3_KNeighborsClassifier'
p895
aS'4000_None_HashingVectorizer|no_transformation|l2_0.04776_212_LogisticRegression'
p896
aS'303_4_l2_TfidfVectorizer|no_transformation|54_gini_0.09294_RandomForestClassifier'
p897
aS'689_3_l2_TfidfVectorizer|no_transformation|l2_0.05942_371_LogisticRegression'
p898
aS'582_10_CountVectorizer|no_transformation|10_distance_minkowski_13_KNeighborsClassifier'
p899
aS'37_0.286987680338_0.685512774742_0.918002491368_11.1284530191_210_LatentDirichletAllocation|no_transformation|l1_0.06726_418_LogisticRegression'
p900
aS'18_0.610102350911_0.52213060027_0.944857842511_31.3078591422_180_LatentDirichletAllocation|no_transformation|141_entropy_0.17235_RandomForestClassifier'
p901
aS'10000_None_HashingVectorizer|no_transformation|l1_0.09797_148_LogisticRegression'
p902
asI75
(lp903
S'485_9_l1_TfidfVectorizer|no_transformation|l1_0.0176_95_LogisticRegression'
p904
aS'946_10_CountVectorizer|no_transformation|147_gini_0.85535_RandomForestClassifier'
p905
aS'306_1_CountVectorizer|no_transformation|22_uniform_minkowski_9_KNeighborsClassifier'
p906
aS'44_0.363400601259_0.684552618783_0.644940479717_26.8797159438_300_LatentDirichletAllocation|no_transformation|22_uniform_minkowski_9_KNeighborsClassifier'
p907
aS'957_9_CountVectorizer|no_transformation|94_entropy_0.53327_RandomForestClassifier'
p908
aS'404_9_None_TfidfVectorizer|no_transformation|130_entropy_0.35265_RandomForestClassifier'
p909
aS'416_9_CountVectorizer|no_transformation|116_entropy_0.90635_RandomForestClassifier'
p910
aS'353_6_None_TfidfVectorizer|no_transformation|GaussianNB'
p911
aS'818_6_None_TfidfVectorizer|no_transformation|4_uniform_chebyshev_2_KNeighborsClassifier'
p912
aS'40_0.0516361970356_0.805986270863_0.58625260801_18.8288859279_210_LatentDirichletAllocation|no_transformation|l1_0.00603_307_LogisticRegression'
p913
aS'8000_l1_HashingVectorizer|no_transformation|0.709993782682_entropy_random_DecisionTreeClassifier'
p914
asI76
(lp915
S'21_0.00114901152544_0.885047277022_0.688095748747_41.1362143491_150_LatentDirichletAllocation|no_transformation|l2_0.03541_422_LogisticRegression'
p916
aS'582_8_CountVectorizer|no_transformation|l2_0.05055_342_LogisticRegression'
p917
aS'687_4_l1_TfidfVectorizer|no_transformation|108_entropy_0.37203_RandomForestClassifier'
p918
aS'12_0.0585344150507_0.563440750746_0.765285049902_4.87874259522_210_LatentDirichletAllocation|no_transformation|57_gini_0.271_RandomForestClassifier'
p919
aS'147_1_CountVectorizer|no_transformation|l1_0.00344_485_LogisticRegression'
p920
aS'10_0.368814636029_0.594049782568_0.705219221536_5.64590932411_300_LatentDirichletAllocation|no_transformation|l1_0.00508_206_LogisticRegression'
p921
aS'663_5_CountVectorizer|no_transformation|103_entropy_0.82845_RandomForestClassifier'
p922
aS'10000_l2_HashingVectorizer|no_transformation|l2_0.02987_5_LogisticRegression'
p923
aS'257_8_None_TfidfVectorizer|no_transformation|l1_0.00022_442_LogisticRegression'
p924
aS'25_0.219256099249_0.716289529143_0.686185830163_6.91324974119_250_LatentDirichletAllocation|no_transformation|0.499806358598_entropy_best_DecisionTreeClassifier'
p925
aS'802_9_None_TfidfVectorizer|no_transformation|l2_0.02802_210_LogisticRegression'
p926
asI77
(lp927
S'44_0.0208187261383_0.990644040724_0.726234442841_19.6269793826_210_LatentDirichletAllocation|no_transformation|l2_0.05631_57_LogisticRegression'
p928
aS'45_0.903365880436_0.628509545159_0.629343342752_18.9703227188_210_LatentDirichletAllocation|no_transformation|l2_0.03616_11_LogisticRegression'
p929
aS'1000_l1_HashingVectorizer|no_transformation|0.360589243267_entropy_best_DecisionTreeClassifier'
p930
aS'4000_l1_HashingVectorizer|no_transformation|0.893448040521_entropy_best_DecisionTreeClassifier'
p931
aS'46_0.0370420197727_0.0358061111491_0.968147698492_29.537475632_300_LatentDirichletAllocation|no_transformation|l2_0.07804_142_LogisticRegression'
p932
aS'12_0.818645023422_0.994645797388_0.556625766024_48.0002161654_210_LatentDirichletAllocation|no_transformation|63_entropy_0.15764_RandomForestClassifier'
p933
aS'49_0.0964331477712_0.516847985277_0.566563600306_28.5089271816_180_LatentDirichletAllocation|no_transformation|l2_0.08866_407_LogisticRegression'
p934
aS'47_0.653230834423_0.0613920419181_0.994888201173_40.8506201612_150_LatentDirichletAllocation|no_transformation|l2_0.03195_162_LogisticRegression'
p935
aS'43_0.0144622753478_0.194769994293_0.79932141553_19.4633428486_250_LatentDirichletAllocation|no_transformation|69_entropy_0.9162_RandomForestClassifier'
p936
aS'180_2_l1_TfidfVectorizer|no_transformation|0.114914701486_entropy_random_DecisionTreeClassifier'
p937
aS'368_5_CountVectorizer|no_transformation|l2_0.02291_228_LogisticRegression'
p938
asI78
(lp939
S'18_0.287918442576_0.0596888818551_0.625038660162_17.2272666846_300_LatentDirichletAllocation|no_transformation|81_entropy_0.92463_RandomForestClassifier'
p940
aS'857_2_None_TfidfVectorizer|no_transformation|68_entropy_0.85766_RandomForestClassifier'
p941
aS'880_3_None_TfidfVectorizer|no_transformation|104_entropy_0.69119_RandomForestClassifier'
p942
aS'227_7_CountVectorizer|no_transformation|l1_0.08791_294_LogisticRegression'
p943
aS'41_0.239744962798_0.0810777347402_0.901317236679_23.2724170178_180_LatentDirichletAllocation|no_transformation|111_gini_0.81737_RandomForestClassifier'
p944
aS'756_7_CountVectorizer|no_transformation|0.621026035676_gini_random_DecisionTreeClassifier'
p945
aS'161_7_CountVectorizer|no_transformation|l1_0.08803_428_LogisticRegression'
p946
aS'397_9_l1_TfidfVectorizer|no_transformation|136_entropy_0.18982_RandomForestClassifier'
p947
aS'312_6_l2_TfidfVectorizer|no_transformation|l2_0.02237_292_LogisticRegression'
p948
aS'21_0.604072189426_0.19079350471_0.815923590422_23.9567233797_210_LatentDirichletAllocation|no_transformation|0.721796136863_entropy_random_DecisionTreeClassifier'
p949
aS'25_0.692333804027_0.268020368772_0.624311076172_7.85554668337_210_LatentDirichletAllocation|no_transformation|116_entropy_0.82723_RandomForestClassifier'
p950
asI79
(lp951
S'43_0.429517454018_0.938729345767_0.616903180682_6.6558782576_210_LatentDirichletAllocation|no_transformation|79_gini_0.5491_RandomForestClassifier'
p952
aS'34_0.503745290018_0.527099638594_0.51417896357_10.4352529796_300_LatentDirichletAllocation|no_transformation|l2_0.07597_147_LogisticRegression'
p953
aS'705_8_None_TfidfVectorizer|no_transformation|100_entropy_0.68123_RandomForestClassifier'
p954
aS'18_0.731573616242_0.288658697514_0.638082722628_10.3557840977_180_LatentDirichletAllocation|no_transformation|l2_0.08685_408_LogisticRegression'
p955
aS'43_0.645542036664_0.778871870084_0.888708813529_18.4896165669_300_LatentDirichletAllocation|no_transformation|0.709014170072_entropy_random_DecisionTreeClassifier'
p956
aS'989_8_CountVectorizer|no_transformation|113_entropy_0.31751_RandomForestClassifier'
p957
aS'836_7_CountVectorizer|no_transformation|88_entropy_0.39878_RandomForestClassifier'
p958
aS'20_0.799625516033_0.210418716517_0.630164240045_10.260979317_180_LatentDirichletAllocation|no_transformation|57_gini_0.38821_RandomForestClassifier'
p959
aS'44_0.394976981727_0.279467730979_0.551468883235_32.2982061206_150_LatentDirichletAllocation|no_transformation|19_distance_chebyshev_2_KNeighborsClassifier'
p960
aS'49_0.967481933437_0.373565340619_0.782409387767_34.3467333329_150_LatentDirichletAllocation|no_transformation|0.30443938701_gini_best_DecisionTreeClassifier'
p961
aS'34_0.663913251593_0.677300467717_0.56515226609_16.240888963_180_LatentDirichletAllocation|no_transformation|l2_0.09596_113_LogisticRegression'
p962
asI80
(lp963
S'856_10_CountVectorizer|no_transformation|83_gini_0.33602_RandomForestClassifier'
p964
aS'256_3_CountVectorizer|no_transformation|l2_0.02348_358_LogisticRegression'
p965
aS'30_0.933343172111_0.653997471413_0.729172347052_4.99092699698_250_LatentDirichletAllocation|no_transformation|l2_0.09137_63_LogisticRegression'
p966
aS'171_8_None_TfidfVectorizer|no_transformation|80_gini_0.85371_RandomForestClassifier'
p967
aS'330_9_None_TfidfVectorizer|no_transformation|l1_0.06887_145_LogisticRegression'
p968
aS'769_8_CountVectorizer|no_transformation|7_distance_chebyshev_2_KNeighborsClassifier'
p969
aS'2000_None_HashingVectorizer|no_transformation|l2_0.09551_168_LogisticRegression'
p970
aS'47_0.0885813476977_0.73749836681_0.956356013477_1.55299101433_300_LatentDirichletAllocation|no_transformation|18_uniform_chebyshev_2_KNeighborsClassifier'
p971
aS'46_0.741233962011_0.833981848725_0.534366097622_16.9401454145_250_LatentDirichletAllocation|no_transformation|91_gini_0.15652_RandomForestClassifier'
p972
aS'741_7_CountVectorizer|no_transformation|GaussianNB'
p973
aS'818_1_CountVectorizer|no_transformation|0.571362332969_gini_best_DecisionTreeClassifier'
p974
asI81
(lp975
S'845_4_CountVectorizer|no_transformation|146_entropy_0.41971_RandomForestClassifier'
p976
aS'15_0.894742182616_0.563557007315_0.880583909464_39.1278291327_150_LatentDirichletAllocation|no_transformation|l1_0.05588_450_LogisticRegression'
p977
aS'10000_l1_HashingVectorizer|no_transformation|121_gini_0.13323_RandomForestClassifier'
p978
aS'827_5_l2_TfidfVectorizer|no_transformation|0.52264402292_entropy_random_DecisionTreeClassifier'
p979
aS'49_0.960500002496_0.260254638904_0.985485666848_15.2197832109_210_LatentDirichletAllocation|no_transformation|l1_0.04017_202_LogisticRegression'
p980
aS'112_4_CountVectorizer|no_transformation|l2_0.06105_434_LogisticRegression'
p981
aS'46_0.398475820816_0.531427388134_0.658199083617_6.23947946762_210_LatentDirichletAllocation|no_transformation|0.825416376701_gini_random_DecisionTreeClassifier'
p982
aS'16_0.685868580791_0.860331702241_0.713519190364_30.9265020248_250_LatentDirichletAllocation|no_transformation|60_gini_0.62917_RandomForestClassifier'
p983
aS'11_0.202786567212_0.762061494775_0.577416237301_42.583737258_180_LatentDirichletAllocation|no_transformation|69_gini_0.36734_RandomForestClassifier'
p984
aS'892_8_CountVectorizer|no_transformation|4_distance_minkowski_5_KNeighborsClassifier'
p985
aS'26_0.356760725538_0.283281477129_0.597499926325_45.1225118567_150_LatentDirichletAllocation|no_transformation|0.103700355213_entropy_best_DecisionTreeClassifier'
p986
asI82
(lp987
S'282_7_l1_TfidfVectorizer|no_transformation|65_gini_0.57618_RandomForestClassifier'
p988
aS'20_0.285971692497_0.217702230835_0.638092375227_37.8607495891_150_LatentDirichletAllocation|no_transformation|0.298624672362_gini_random_DecisionTreeClassifier'
p989
aS'33_0.25618306192_0.411711631576_0.557172812904_41.5595750097_180_LatentDirichletAllocation|no_transformation|3_distance_minkowski_7_KNeighborsClassifier'
p990
aS'21_0.958544132025_0.545524214565_0.599648890457_13.7297608589_180_LatentDirichletAllocation|no_transformation|100_gini_0.39327_RandomForestClassifier'
p991
aS'40_0.570026310342_0.45353028823_0.99834432361_9.77461205171_250_LatentDirichletAllocation|no_transformation|53_gini_0.63474_RandomForestClassifier'
p992
aS'219_3_CountVectorizer|no_transformation|74_entropy_0.0857_RandomForestClassifier'
p993
aS'377_5_CountVectorizer|no_transformation|l2_0.0872_37_LogisticRegression'
p994
aS'280_1_CountVectorizer|no_transformation|0.781027295637_gini_random_DecisionTreeClassifier'
p995
aS'593_1_CountVectorizer|no_transformation|5_uniform_minkowski_10_KNeighborsClassifier'
p996
aS'43_0.553608391485_0.319432192546_0.854470263428_24.6283715802_250_LatentDirichletAllocation|no_transformation|4_uniform_minkowski_11_KNeighborsClassifier'
p997
aS'865_1_None_TfidfVectorizer|no_transformation|l1_0.04598_2_LogisticRegression'
p998
asI83
(lp999
S'35_0.626185461526_0.834463166968_0.673414602914_15.0445601807_250_LatentDirichletAllocation|no_transformation|l2_0.03087_372_LogisticRegression'
p1000
aS'797_9_l1_TfidfVectorizer|no_transformation|67_entropy_0.25786_RandomForestClassifier'
p1001
aS'49_0.452116136644_0.300703115742_0.936648675287_11.8148281428_150_LatentDirichletAllocation|no_transformation|105_entropy_0.47025_RandomForestClassifier'
p1002
aS'19_0.889651821366_0.826639630109_0.932391293117_44.4970831825_180_LatentDirichletAllocation|no_transformation|l2_0.01901_365_LogisticRegression'
p1003
aS'113_3_CountVectorizer|no_transformation|l1_0.06409_414_LogisticRegression'
p1004
aS'804_7_l1_TfidfVectorizer|no_transformation|l1_0.09665_58_LogisticRegression'
p1005
aS'32_0.358430021627_0.785471769278_0.558470729057_33.6357783713_210_LatentDirichletAllocation|no_transformation|103_gini_0.6394_RandomForestClassifier'
p1006
aS'43_0.641106052938_0.170436875292_0.577333672088_42.9750559228_210_LatentDirichletAllocation|no_transformation|82_entropy_0.19002_RandomForestClassifier'
p1007
aS'966_5_CountVectorizer|no_transformation|l2_0.08085_484_LogisticRegression'
p1008
aS'824_2_CountVectorizer|no_transformation|128_entropy_0.86165_RandomForestClassifier'
p1009
aS'28_0.760855433423_0.591542144479_0.724462311444_36.0950394999_210_LatentDirichletAllocation|no_transformation|0.676976484684_entropy_random_DecisionTreeClassifier'
p1010
asI84
(lp1011
S'42_0.527857614143_0.121380699722_0.573219394436_27.5256386966_210_LatentDirichletAllocation|no_transformation|0.925552060388_gini_best_DecisionTreeClassifier'
p1012
aS'17_0.731911177249_0.597543954671_0.649129674385_30.4758700857_150_LatentDirichletAllocation|no_transformation|61_entropy_0.0921_RandomForestClassifier'
p1013
aS'450_3_l1_TfidfVectorizer|no_transformation|0.117435320337_entropy_random_DecisionTreeClassifier'
p1014
aS'47_0.66068420551_0.600343694961_0.710524618197_9.82300837735_210_LatentDirichletAllocation|no_transformation|l2_0.07341_113_LogisticRegression'
p1015
aS'34_0.0545625392632_0.507084787812_0.756781757609_35.6390615238_150_LatentDirichletAllocation|no_transformation|0.631613695484_entropy_best_DecisionTreeClassifier'
p1016
aS'905_4_l1_TfidfVectorizer|no_transformation|0.472865084214_gini_random_DecisionTreeClassifier'
p1017
aS'433_10_CountVectorizer|no_transformation|92_entropy_0.53422_RandomForestClassifier'
p1018
aS'1000_None_HashingVectorizer|no_transformation|0.691077451076_entropy_best_DecisionTreeClassifier'
p1019
aS'192_1_CountVectorizer|no_transformation|l2_0.07276_143_LogisticRegression'
p1020
aS'11_0.273740264915_0.0263387151324_0.909787175862_15.191144257_180_LatentDirichletAllocation|no_transformation|14_distance_minkowski_14_KNeighborsClassifier'
p1021
aS'959_9_CountVectorizer|no_transformation|l2_0.05638_471_LogisticRegression'
p1022
asI85
(lp1023
S'620_7_CountVectorizer|no_transformation|23_distance_chebyshev_2_KNeighborsClassifier'
p1024
aS'169_7_l1_TfidfVectorizer|no_transformation|l1_0.0808_462_LogisticRegression'
p1025
aS'6000_None_HashingVectorizer|no_transformation|l2_0.05881_221_LogisticRegression'
p1026
aS'282_7_None_TfidfVectorizer|no_transformation|l1_0.04672_224_LogisticRegression'
p1027
aS'10_0.146216384147_0.906493032315_0.679137036479_10.4622760153_210_LatentDirichletAllocation|no_transformation|150_entropy_0.42943_RandomForestClassifier'
p1028
aS'844_1_l2_TfidfVectorizer|no_transformation|l1_0.06401_137_LogisticRegression'
p1029
aS'18_0.195255499192_0.537323887925_0.536048249671_29.1460619157_250_LatentDirichletAllocation|no_transformation|131_entropy_0.2018_RandomForestClassifier'
p1030
aS'993_1_l2_TfidfVectorizer|no_transformation|l1_0.01957_9_LogisticRegression'
p1031
aS'50_0.950157441658_0.478599484188_0.838699306044_48.5565175353_250_LatentDirichletAllocation|no_transformation|77_gini_0.41932_RandomForestClassifier'
p1032
aS'50_0.504762686296_0.976538041556_0.531228963355_6.53616335285_210_LatentDirichletAllocation|no_transformation|107_entropy_0.21417_RandomForestClassifier'
p1033
aS'10_0.705693607695_0.133685733901_0.904112140788_39.979619822_250_LatentDirichletAllocation|no_transformation|62_gini_0.66927_RandomForestClassifier'
p1034
asI86
(lp1035
S'36_0.579219997091_0.932302864051_0.684127956153_35.2469492405_180_LatentDirichletAllocation|no_transformation|0.888076699276_gini_best_DecisionTreeClassifier'
p1036
aS'808_2_CountVectorizer|no_transformation|l1_0.02693_302_LogisticRegression'
p1037
aS'12_0.062820455244_0.030013379411_0.90116695239_47.770051727_150_LatentDirichletAllocation|no_transformation|l2_0.01961_379_LogisticRegression'
p1038
aS'47_0.453117784643_0.923779835792_0.816861577168_42.463429331_150_LatentDirichletAllocation|no_transformation|0.548336992078_entropy_random_DecisionTreeClassifier'
p1039
aS'852_9_CountVectorizer|no_transformation|94_entropy_0.18074_RandomForestClassifier'
p1040
aS'41_0.255846088312_0.941043459716_0.848468858014_44.0897696935_210_LatentDirichletAllocation|no_transformation|0.90799367354_gini_random_DecisionTreeClassifier'
p1041
aS'50_0.349778731881_0.824974416752_0.956634615223_25.1090004227_250_LatentDirichletAllocation|no_transformation|l1_0.04266_115_LogisticRegression'
p1042
aS'46_0.0345618559853_0.881452181647_0.967535268502_1.0269057847_300_LatentDirichletAllocation|no_transformation|l1_0.08148_161_LogisticRegression'
p1043
aS'212_8_CountVectorizer|no_transformation|0.773721216598_gini_random_DecisionTreeClassifier'
p1044
aS'195_4_l1_TfidfVectorizer|no_transformation|l1_0.02624_493_LogisticRegression'
p1045
aS'37_0.901691168157_0.242120016396_0.561549608172_47.0000275646_250_LatentDirichletAllocation|no_transformation|135_gini_0.47472_RandomForestClassifier'
p1046
asI87
(lp1047
S'21_0.724163011404_0.406634781668_0.611319883848_31.6812146873_300_LatentDirichletAllocation|no_transformation|82_entropy_0.97345_RandomForestClassifier'
p1048
aS'929_8_CountVectorizer|no_transformation|l2_0.03141_495_LogisticRegression'
p1049
aS'173_1_CountVectorizer|no_transformation|87_entropy_0.30958_RandomForestClassifier'
p1050
aS'33_0.324285562829_0.79603261712_0.801586007827_21.7852728998_300_LatentDirichletAllocation|no_transformation|l2_0.07166_441_LogisticRegression'
p1051
aS'30_0.349149723492_0.742359296357_0.756532660933_22.6986148448_150_LatentDirichletAllocation|no_transformation|69_gini_0.53475_RandomForestClassifier'
p1052
aS'194_8_l1_TfidfVectorizer|no_transformation|130_gini_0.92913_RandomForestClassifier'
p1053
aS'709_8_l1_TfidfVectorizer|no_transformation|113_gini_0.35923_RandomForestClassifier'
p1054
aS'533_9_l2_TfidfVectorizer|no_transformation|l1_0.08226_159_LogisticRegression'
p1055
aS'709_5_CountVectorizer|no_transformation|113_entropy_0.01508_RandomForestClassifier'
p1056
aS'722_2_None_TfidfVectorizer|no_transformation|0.300950924085_gini_best_DecisionTreeClassifier'
p1057
aS'404_3_l2_TfidfVectorizer|no_transformation|0.76198388594_gini_best_DecisionTreeClassifier'
p1058
asI88
(lp1059
S'429_4_CountVectorizer|no_transformation|l1_0.08614_184_LogisticRegression'
p1060
aS'116_5_CountVectorizer|no_transformation|95_gini_0.74806_RandomForestClassifier'
p1061
aS'716_9_CountVectorizer|no_transformation|16_distance_minkowski_4_KNeighborsClassifier'
p1062
aS'919_4_l2_TfidfVectorizer|no_transformation|l2_0.09747_475_LogisticRegression'
p1063
aS'46_0.566537086751_0.732445645144_0.849924931351_24.3253244857_300_LatentDirichletAllocation|no_transformation|l1_0.09325_490_LogisticRegression'
p1064
aS'971_8_None_TfidfVectorizer|no_transformation|137_gini_0.55932_RandomForestClassifier'
p1065
aS'619_7_CountVectorizer|no_transformation|130_entropy_0.84608_RandomForestClassifier'
p1066
aS'917_1_l2_TfidfVectorizer|no_transformation|l2_0.02775_45_LogisticRegression'
p1067
aS'29_0.956647968835_0.372583974407_0.990038321906_29.2447657126_210_LatentDirichletAllocation|no_transformation|l2_0.02013_103_LogisticRegression'
p1068
aS'253_9_None_TfidfVectorizer|no_transformation|l1_0.06378_151_LogisticRegression'
p1069
aS'927_9_l2_TfidfVectorizer|no_transformation|141_entropy_0.54109_RandomForestClassifier'
p1070
asI89
(lp1071
S'49_0.193348950886_0.0469586558098_0.688561813845_30.2729592109_210_LatentDirichletAllocation|no_transformation|0.845285787655_gini_random_DecisionTreeClassifier'
p1072
aS'216_1_CountVectorizer|no_transformation|0.305930007528_gini_random_DecisionTreeClassifier'
p1073
aS'17_0.114791921212_0.889102129558_0.727194950995_40.2092942236_250_LatentDirichletAllocation|no_transformation|0.0420224210611_gini_random_DecisionTreeClassifier'
p1074
aS'747_10_CountVectorizer|no_transformation|0.893420899189_gini_best_DecisionTreeClassifier'
p1075
aS'21_0.754225326211_0.0758758941811_0.541947027691_14.182852786_300_LatentDirichletAllocation|no_transformation|l1_0.00745_82_LogisticRegression'
p1076
aS'20_0.359502291485_0.551664415205_0.786516916936_11.7520725122_250_LatentDirichletAllocation|no_transformation|22_uniform_minkowski_4_KNeighborsClassifier'
p1077
aS'851_4_CountVectorizer|no_transformation|102_entropy_0.7388_RandomForestClassifier'
p1078
aS'11_0.513760719285_0.697067596869_0.797011248708_45.5201569192_150_LatentDirichletAllocation|no_transformation|l2_0.03731_470_LogisticRegression'
p1079
aS'501_3_CountVectorizer|no_transformation|l1_0.03443_342_LogisticRegression'
p1080
aS'963_5_l1_TfidfVectorizer|no_transformation|119_entropy_0.28778_RandomForestClassifier'
p1081
aS'42_0.387491863933_0.35254154831_0.876932885608_10.0345360323_250_LatentDirichletAllocation|no_transformation|l2_0.02505_154_LogisticRegression'
p1082
asI90
(lp1083
S'505_7_l2_TfidfVectorizer|no_transformation|l2_0.04446_381_LogisticRegression'
p1084
aS'10000_None_HashingVectorizer|no_transformation|0.193202143615_gini_best_DecisionTreeClassifier'
p1085
aS'43_0.935416877609_0.549633409592_0.783945910997_36.7522291932_180_LatentDirichletAllocation|no_transformation|0.732455882867_entropy_best_DecisionTreeClassifier'
p1086
aS'360_6_CountVectorizer|no_transformation|l1_0.06923_461_LogisticRegression'
p1087
aS'25_0.465255083911_0.926527009819_0.809677344368_29.2776176045_180_LatentDirichletAllocation|no_transformation|l2_0.0996_315_LogisticRegression'
p1088
aS'796_10_CountVectorizer|no_transformation|l2_0.02035_107_LogisticRegression'
p1089
aS'117_3_l2_TfidfVectorizer|no_transformation|l2_0.00796_330_LogisticRegression'
p1090
aS'38_0.58100601522_0.186841554988_0.962023061242_34.5026942115_150_LatentDirichletAllocation|no_transformation|l1_0.06998_16_LogisticRegression'
p1091
aS'12_0.326605935218_0.387713371017_0.980529745102_23.0788091398_300_LatentDirichletAllocation|no_transformation|122_gini_0.85326_RandomForestClassifier'
p1092
aS'293_5_CountVectorizer|no_transformation|3_distance_minkowski_7_KNeighborsClassifier'
p1093
aS'49_0.319520632303_0.75443166373_0.793176176383_15.8840674424_210_LatentDirichletAllocation|no_transformation|0.516724895962_gini_random_DecisionTreeClassifier'
p1094
asI91
(lp1095
S'38_0.992272283652_0.390047325801_0.862863641478_37.9908945177_180_LatentDirichletAllocation|no_transformation|16_uniform_minkowski_2_KNeighborsClassifier'
p1096
aS'939_2_l1_TfidfVectorizer|no_transformation|17_distance_minkowski_13_KNeighborsClassifier'
p1097
aS'594_3_CountVectorizer|no_transformation|133_entropy_0.62209_RandomForestClassifier'
p1098
aS'678_8_CountVectorizer|no_transformation|51_entropy_0.03722_RandomForestClassifier'
p1099
aS'37_0.458404097573_0.219471066385_0.732123357896_46.1735074145_180_LatentDirichletAllocation|no_transformation|0.490424934879_gini_random_DecisionTreeClassifier'
p1100
aS'42_0.694625877366_0.953179621488_0.96889897906_16.5220211353_250_LatentDirichletAllocation|no_transformation|102_entropy_0.7037_RandomForestClassifier'
p1101
aS'707_5_None_TfidfVectorizer|no_transformation|l2_0.0857_355_LogisticRegression'
p1102
aS'18_0.567585252235_0.000369178535955_0.63399863917_6.72383718274_300_LatentDirichletAllocation|no_transformation|l1_0.08977_46_LogisticRegression'
p1103
aS'228_4_l1_TfidfVectorizer|no_transformation|l1_0.05471_269_LogisticRegression'
p1104
aS'776_4_CountVectorizer|no_transformation|l1_0.09319_222_LogisticRegression'
p1105
aS'20_0.537790941553_0.852279061451_0.601606032518_35.2710934182_210_LatentDirichletAllocation|no_transformation|0.481290925283_entropy_random_DecisionTreeClassifier'
p1106
asI92
(lp1107
S'46_0.793854973953_0.782093623704_0.819830149991_14.6454093462_250_LatentDirichletAllocation|no_transformation|0.589234502161_gini_best_DecisionTreeClassifier'
p1108
aS'605_3_CountVectorizer|no_transformation|l1_0.06728_430_LogisticRegression'
p1109
aS'540_9_l2_TfidfVectorizer|no_transformation|l1_0.0066_236_LogisticRegression'
p1110
aS'182_7_CountVectorizer|no_transformation|75_gini_0.72996_RandomForestClassifier'
p1111
aS'39_0.881256992336_0.100739225899_0.905495844817_46.337154809_250_LatentDirichletAllocation|no_transformation|0.650039020838_gini_random_DecisionTreeClassifier'
p1112
aS'25_0.360223381455_0.40259838694_0.850686113546_40.7901566481_180_LatentDirichletAllocation|no_transformation|0.473321840679_gini_random_DecisionTreeClassifier'
p1113
aS'921_9_CountVectorizer|no_transformation|22_uniform_chebyshev_2_KNeighborsClassifier'
p1114
aS'358_2_CountVectorizer|no_transformation|10_uniform_chebyshev_2_KNeighborsClassifier'
p1115
aS'12_0.904993608876_0.846530657801_0.840580649767_46.2789778288_150_LatentDirichletAllocation|no_transformation|0.737415009777_gini_random_DecisionTreeClassifier'
p1116
aS'192_8_l1_TfidfVectorizer|no_transformation|l2_0.02424_102_LogisticRegression'
p1117
aS'330_7_None_TfidfVectorizer|no_transformation|l1_0.07872_375_LogisticRegression'
p1118
asI93
(lp1119
S'792_6_CountVectorizer|no_transformation|74_entropy_0.76139_RandomForestClassifier'
p1120
aS'752_5_l2_TfidfVectorizer|no_transformation|l1_0.02431_245_LogisticRegression'
p1121
aS'344_6_l1_TfidfVectorizer|no_transformation|134_entropy_0.06448_RandomForestClassifier'
p1122
aS'954_5_None_TfidfVectorizer|no_transformation|66_gini_0.65131_RandomForestClassifier'
p1123
aS'14_0.645259931657_0.745491629174_0.786276177317_31.439948734_210_LatentDirichletAllocation|no_transformation|l1_0.09127_449_LogisticRegression'
p1124
aS'228_10_CountVectorizer|no_transformation|0.0415118952698_gini_random_DecisionTreeClassifier'
p1125
aS'16_0.59654848082_0.727282290243_0.646459386037_22.0556909459_250_LatentDirichletAllocation|no_transformation|115_gini_0.70655_RandomForestClassifier'
p1126
aS'33_0.378044637315_0.817963796477_0.980731430049_29.194243772_150_LatentDirichletAllocation|no_transformation|23_uniform_minkowski_9_KNeighborsClassifier'
p1127
aS'214_2_CountVectorizer|no_transformation|l2_0.01683_498_LogisticRegression'
p1128
aS'14_0.544908185614_0.568801349441_0.685139443635_32.7237308574_150_LatentDirichletAllocation|no_transformation|l2_0.00594_384_LogisticRegression'
p1129
aS'396_7_CountVectorizer|no_transformation|l2_0.00684_413_LogisticRegression'
p1130
asI94
(lp1131
S'27_0.312998917862_0.0970278417819_0.848021322119_8.14157516952_150_LatentDirichletAllocation|no_transformation|74_gini_0.45972_RandomForestClassifier'
p1132
aS'33_0.962649553224_0.890684142142_0.545671867634_11.0822424173_180_LatentDirichletAllocation|no_transformation|l2_0.03402_191_LogisticRegression'
p1133
aS'971_4_CountVectorizer|no_transformation|l2_0.05513_199_LogisticRegression'
p1134
aS'22_0.39208320206_0.926122766272_0.733452247188_36.7631181448_210_LatentDirichletAllocation|no_transformation|137_gini_0.68985_RandomForestClassifier'
p1135
aS'666_7_CountVectorizer|no_transformation|17_distance_chebyshev_2_KNeighborsClassifier'
p1136
aS'38_0.87328787457_0.566730157295_0.558425157763_32.409951327_300_LatentDirichletAllocation|no_transformation|14_uniform_minkowski_8_KNeighborsClassifier'
p1137
aS'46_0.108642490461_0.174830961895_0.636234411439_41.4863357595_300_LatentDirichletAllocation|no_transformation|l1_0.05787_16_LogisticRegression'
p1138
aS'654_9_CountVectorizer|no_transformation|0.481231051292_gini_random_DecisionTreeClassifier'
p1139
aS'389_7_CountVectorizer|no_transformation|l2_0.08255_261_LogisticRegression'
p1140
aS'6000_None_HashingVectorizer|no_transformation|l1_0.06506_439_LogisticRegression'
p1141
aS'17_0.862574429542_0.624632479078_0.77298402802_18.7060555878_210_LatentDirichletAllocation|no_transformation|0.87464355661_gini_random_DecisionTreeClassifier'
p1142
asI95
(lp1143
S'598_4_CountVectorizer|no_transformation|0.15208025153_entropy_random_DecisionTreeClassifier'
p1144
aS'1000_l1_HashingVectorizer|no_transformation|136_entropy_0.12849_RandomForestClassifier'
p1145
aS'640_10_l2_TfidfVectorizer|no_transformation|l1_0.08809_159_LogisticRegression'
p1146
aS'433_1_l1_TfidfVectorizer|no_transformation|0.580601430187_gini_random_DecisionTreeClassifier'
p1147
aS'29_0.958348699785_0.0678825133513_0.992679956602_49.7030756417_300_LatentDirichletAllocation|no_transformation|0.202822531577_entropy_best_DecisionTreeClassifier'
p1148
aS'378_2_l2_TfidfVectorizer|no_transformation|0.851915296909_entropy_random_DecisionTreeClassifier'
p1149
aS'40_0.832694644946_0.610893798862_0.949108395444_3.8937127764_300_LatentDirichletAllocation|no_transformation|143_gini_0.60355_RandomForestClassifier'
p1150
aS'22_0.19940608073_0.362339167489_0.660650647763_25.0478164297_150_LatentDirichletAllocation|no_transformation|0.917734128777_entropy_random_DecisionTreeClassifier'
p1151
aS'421_5_CountVectorizer|no_transformation|134_gini_0.20834_RandomForestClassifier'
p1152
aS'322_4_CountVectorizer|no_transformation|l1_0.08612_299_LogisticRegression'
p1153
aS'624_4_CountVectorizer|no_transformation|0.0938441395145_entropy_best_DecisionTreeClassifier'
p1154
asI96
(lp1155
S'574_8_None_TfidfVectorizer|no_transformation|2_uniform_minkowski_8_KNeighborsClassifier'
p1156
aS'49_0.887452282105_0.197842366532_0.706412340206_22.9064060271_300_LatentDirichletAllocation|no_transformation|0.339015291056_gini_best_DecisionTreeClassifier'
p1157
aS'941_5_CountVectorizer|no_transformation|3_uniform_chebyshev_2_KNeighborsClassifier'
p1158
aS'639_6_CountVectorizer|no_transformation|0.489858997565_gini_random_DecisionTreeClassifier'
p1159
aS'574_7_l1_TfidfVectorizer|no_transformation|0.754686012138_gini_random_DecisionTreeClassifier'
p1160
aS'752_4_l1_TfidfVectorizer|no_transformation|l1_0.01678_295_LogisticRegression'
p1161
aS'470_2_CountVectorizer|no_transformation|82_entropy_0.56423_RandomForestClassifier'
p1162
aS'32_0.737455579769_0.360133798787_0.579991637654_8.09120066411_150_LatentDirichletAllocation|no_transformation|l1_0.03164_471_LogisticRegression'
p1163
aS'603_7_CountVectorizer|no_transformation|l1_0.01278_267_LogisticRegression'
p1164
aS'47_0.766914228922_0.684079647478_0.782981872707_21.6715192597_250_LatentDirichletAllocation|no_transformation|0.105665563773_entropy_random_DecisionTreeClassifier'
p1165
aS'48_0.360913707931_0.492839098625_0.762013795424_36.8552166252_180_LatentDirichletAllocation|no_transformation|0.972654975177_gini_random_DecisionTreeClassifier'
p1166
asI97
(lp1167
S'30_0.513325523839_0.421608149135_0.973847111825_3.70189625374_210_LatentDirichletAllocation|no_transformation|138_gini_0.30217_RandomForestClassifier'
p1168
aS'283_3_CountVectorizer|no_transformation|16_distance_chebyshev_2_KNeighborsClassifier'
p1169
aS'13_0.17920517387_0.876765278077_0.892049668588_1.23364325415_150_LatentDirichletAllocation|no_transformation|0.77229596245_entropy_random_DecisionTreeClassifier'
p1170
aS'405_9_CountVectorizer|no_transformation|11_uniform_minkowski_15_KNeighborsClassifier'
p1171
aS'806_2_l1_TfidfVectorizer|no_transformation|0.410652288164_entropy_random_DecisionTreeClassifier'
p1172
aS'29_0.58785213579_0.952843195252_0.640398341651_46.6861821364_250_LatentDirichletAllocation|no_transformation|l1_0.08531_234_LogisticRegression'
p1173
aS'45_0.883736190182_0.920880714684_0.964811645053_21.3352369188_150_LatentDirichletAllocation|no_transformation|119_entropy_0.36441_RandomForestClassifier'
p1174
aS'44_0.903857543356_0.599370887516_0.897426516009_8.66585697479_250_LatentDirichletAllocation|no_transformation|110_entropy_0.9791_RandomForestClassifier'
p1175
aS'993_6_l2_TfidfVectorizer|no_transformation|59_entropy_0.57743_RandomForestClassifier'
p1176
aS'29_0.186529879801_0.647952028003_0.726255788615_31.7927384228_180_LatentDirichletAllocation|no_transformation|l2_0.04673_149_LogisticRegression'
p1177
aS'267_7_CountVectorizer|no_transformation|l2_0.0549_455_LogisticRegression'
p1178
asI98
(lp1179
S'529_1_CountVectorizer|no_transformation|l2_0.03858_144_LogisticRegression'
p1180
aS'41_0.916838459553_0.849547954901_0.511303263391_16.0843501401_300_LatentDirichletAllocation|no_transformation|0.86092294446_entropy_random_DecisionTreeClassifier'
p1181
aS'316_5_CountVectorizer|no_transformation|l1_0.06635_205_LogisticRegression'
p1182
aS'14_0.186040602426_0.423198716698_0.72562143228_7.46745696078_300_LatentDirichletAllocation|no_transformation|l2_0.00357_496_LogisticRegression'
p1183
aS'399_2_l2_TfidfVectorizer|no_transformation|l1_0.07318_27_LogisticRegression'
p1184
aS'17_0.667150713942_0.80800836051_0.848629048059_17.4459364318_150_LatentDirichletAllocation|no_transformation|l2_0.00995_469_LogisticRegression'
p1185
aS'389_5_CountVectorizer|no_transformation|l1_0.09215_291_LogisticRegression'
p1186
aS'699_3_None_TfidfVectorizer|no_transformation|86_gini_0.78886_RandomForestClassifier'
p1187
aS'30_0.254172842887_0.909846585045_0.81128884591_12.6300286556_250_LatentDirichletAllocation|no_transformation|l2_0.02249_290_LogisticRegression'
p1188
aS'38_0.678054643197_0.52620731921_0.99376926417_49.8970218174_250_LatentDirichletAllocation|no_transformation|120_entropy_0.09505_RandomForestClassifier'
p1189
aS'22_0.274544950677_0.564328562597_0.733923547499_39.2446728616_180_LatentDirichletAllocation|no_transformation|103_entropy_0.90394_RandomForestClassifier'
p1190
asI99
(lp1191
S'884_7_CountVectorizer|no_transformation|125_entropy_0.78764_RandomForestClassifier'
p1192
aS'991_7_l2_TfidfVectorizer|no_transformation|l1_0.04551_446_LogisticRegression'
p1193
aS'534_4_None_TfidfVectorizer|no_transformation|120_entropy_0.24629_RandomForestClassifier'
p1194
aS'24_0.134675152721_0.207416565453_0.751083075184_3.06690675367_210_LatentDirichletAllocation|no_transformation|122_gini_0.65968_RandomForestClassifier'
p1195
aS'1000_l2_HashingVectorizer|no_transformation|140_gini_0.69017_RandomForestClassifier'
p1196
aS'841_9_l1_TfidfVectorizer|no_transformation|0.798098641279_gini_random_DecisionTreeClassifier'
p1197
aS'14_0.0418537549455_0.599589364272_0.677722354381_4.25243052296_210_LatentDirichletAllocation|no_transformation|l2_0.0467_435_LogisticRegression'
p1198
aS'408_1_None_TfidfVectorizer|no_transformation|0.418156705186_entropy_best_DecisionTreeClassifier'
p1199
aS'755_9_CountVectorizer|no_transformation|5_distance_minkowski_12_KNeighborsClassifier'
p1200
aS'16_0.95906042296_0.219016420366_0.739891523674_27.7383653346_300_LatentDirichletAllocation|no_transformation|l1_0.00279_170_LogisticRegression'
p1201
aS'14_0.351542422746_0.128246300051_0.673378758194_25.7437117933_300_LatentDirichletAllocation|no_transformation|10_distance_minkowski_5_KNeighborsClassifier'
p1202
assS'counter_full'
p1203
(dp1204
F0.025
(dp1205
I0
(lp1206
F0.556
aF0.409
aF0.462
aF0.542
aF0.506
aF0.429
aF0.435
aF0.496
aF0.552
aF0.438
aF0.459
asI1
(lp1207
F0.516
aF0.409
aF0.462
aF0.542
aF0.478
aF0.429
aF0.435
aF0.496
aF0.552
aF0.438
aF0.459
asI2
(lp1208
F0.516
aF0.409
aF0.42
aF0.426
aF0.478
aF0.429
aF0.435
aF0.496
aF0.552
aF0.438
aF0.459
asI3
(lp1209
F0.516
aF0.409
aF0.42
aF0.426
aF0.478
aF0.429
aF0.435
aF0.496
aF0.552
aF0.438
aF0.459
asI4
(lp1210
F0.516
aF0.409
aF0.42
aF0.426
aF0.478
aF0.429
aF0.435
aF0.496
aF0.484
aF0.438
aF0.459
asI5
(lp1211
F0.491
aF0.409
aF0.42
aF0.426
aF0.478
aF0.429
aF0.435
aF0.496
aF0.484
aF0.438
aF0.459
asI6
(lp1212
F0.491
aF0.409
aF0.42
aF0.426
aF0.478
aF0.429
aF0.435
aF0.417
aF0.484
aF0.438
aF0.459
asI7
(lp1213
F0.491
aF0.409
aF0.42
aF0.426
aF0.478
aF0.429
aF0.435
aF0.417
aF0.484
aF0.438
aF0.459
asI8
(lp1214
F0.491
aF0.409
aF0.42
aF0.426
aF0.478
aF0.429
aF0.435
aF0.417
aF0.484
aF0.438
aF0.459
asI9
(lp1215
F0.491
aF0.409
aF0.42
aF0.426
aF0.478
aF0.429
aF0.435
aF0.417
aF0.484
aF0.438
aF0.459
asI10
(lp1216
F0.465
aF0.409
aF0.42
aF0.426
aF0.478
aF0.429
aF0.435
aF0.417
aF0.484
aF0.438
aF0.459
asI11
(lp1217
F0.465
aF0.409
aF0.42
aF0.426
aF0.478
aF0.429
aF0.435
aF0.417
aF0.484
aF0.438
aF0.459
asI12
(lp1218
F0.465
aF0.409
aF0.42
aF0.426
aF0.478
aF0.429
aF0.435
aF0.417
aF0.484
aF0.438
aF0.459
asI13
(lp1219
F0.465
aF0.409
aF0.42
aF0.426
aF0.478
aF0.429
aF0.435
aF0.417
aF0.484
aF0.438
aF0.459
asI14
(lp1220
F0.465
aF0.409
aF0.42
aF0.426
aF0.478
aF0.429
aF0.435
aF0.417
aF0.411
aF0.438
aF0.459
asI15
(lp1221
F0.465
aF0.409
aF0.42
aF0.426
aF0.478
aF0.429
aF0.435
aF0.417
aF0.411
aF0.438
aF0.412
asI16
(lp1222
F0.44
aF0.409
aF0.42
aF0.426
aF0.478
aF0.429
aF0.435
aF0.417
aF0.411
aF0.438
aF0.412
asI17
(lp1223
F0.44
aF0.409
aF0.42
aF0.426
aF0.478
aF0.429
aF0.435
aF0.417
aF0.411
aF0.438
aF0.412
asI18
(lp1224
F0.44
aF0.409
aF0.42
aF0.426
aF0.478
aF0.429
aF0.435
aF0.417
aF0.411
aF0.438
aF0.412
asI19
(lp1225
F0.44
aF0.409
aF0.42
aF0.426
aF0.478
aF0.429
aF0.435
aF0.417
aF0.411
aF0.438
aF0.412
asI20
(lp1226
F0.44
aF0.409
aF0.42
aF0.426
aF0.478
aF0.429
aF0.435
aF0.417
aF0.411
aF0.438
aF0.412
asI21
(lp1227
F0.44
aF0.409
aF0.42
aF0.426
aF0.478
aF0.429
aF0.435
aF0.417
aF0.411
aF0.438
aF0.412
asI22
(lp1228
F0.44
aF0.409
aF0.42
aF0.426
aF0.478
aF0.429
aF0.435
aF0.417
aF0.411
aF0.438
aF0.412
asI23
(lp1229
F0.44
aF0.409
aF0.42
aF0.426
aF0.478
aF0.429
aF0.435
aF0.417
aF0.411
aF0.438
aF0.412
asI24
(lp1230
F0.44
aF0.409
aF0.42
aF0.426
aF0.478
aF0.429
aF0.435
aF0.417
aF0.411
aF0.438
aF0.412
asI25
(lp1231
F0.44
aF0.409
aF0.42
aF0.426
aF0.478
aF0.429
aF0.435
aF0.417
aF0.411
aF0.438
aF0.412
asI26
(lp1232
F0.44
aF0.409
aF0.42
aF0.426
aF0.478
aF0.429
aF0.391
aF0.417
aF0.411
aF0.438
aF0.412
asI27
(lp1233
F0.44
aF0.409
aF0.42
aF0.426
aF0.478
aF0.429
aF0.391
aF0.417
aF0.411
aF0.438
aF0.412
asI28
(lp1234
F0.44
aF0.409
aF0.42
aF0.426
aF0.478
aF0.429
aF0.391
aF0.417
aF0.411
aF0.438
aF0.412
asI29
(lp1235
F0.44
aF0.409
aF0.42
aF0.426
aF0.478
aF0.429
aF0.391
aF0.417
aF0.411
aF0.438
aF0.412
asI30
(lp1236
F0.44
aF0.409
aF0.42
aF0.426
aF0.478
aF0.429
aF0.391
aF0.417
aF0.411
aF0.438
aF0.412
asI31
(lp1237
F0.44
aF0.409
aF0.42
aF0.426
aF0.478
aF0.429
aF0.391
aF0.417
aF0.411
aF0.405
aF0.412
asI32
(lp1238
F0.44
aF0.409
aF0.42
aF0.426
aF0.478
aF0.429
aF0.391
aF0.417
aF0.411
aF0.405
aF0.412
asI33
(lp1239
F0.44
aF0.409
aF0.42
aF0.426
aF0.478
aF0.429
aF0.391
aF0.417
aF0.411
aF0.405
aF0.412
asI34
(lp1240
F0.44
aF0.409
aF0.42
aF0.426
aF0.478
aF0.429
aF0.391
aF0.417
aF0.411
aF0.405
aF0.412
asI35
(lp1241
F0.44
aF0.409
aF0.42
aF0.426
aF0.478
aF0.429
aF0.391
aF0.417
aF0.411
aF0.405
aF0.412
asI36
(lp1242
F0.44
aF0.409
aF0.42
aF0.426
aF0.478
aF0.429
aF0.391
aF0.417
aF0.411
aF0.405
aF0.412
asI37
(lp1243
F0.44
aF0.409
aF0.42
aF0.426
aF0.478
aF0.429
aF0.391
aF0.417
aF0.411
aF0.405
aF0.412
asI38
(lp1244
F0.44
aF0.409
aF0.42
aF0.426
aF0.478
aF0.429
aF0.391
aF0.417
aF0.411
aF0.405
aF0.412
asI39
(lp1245
F0.44
aF0.409
aF0.42
aF0.426
aF0.478
aF0.429
aF0.391
aF0.417
aF0.411
aF0.405
aF0.412
asI40
(lp1246
F0.44
aF0.409
aF0.42
aF0.426
aF0.478
aF0.429
aF0.391
aF0.417
aF0.411
aF0.405
aF0.412
asI41
(lp1247
F0.44
aF0.409
aF0.42
aF0.426
aF0.478
aF0.429
aF0.391
aF0.417
aF0.411
aF0.405
aF0.412
asI42
(lp1248
F0.44
aF0.409
aF0.42
aF0.426
aF0.442
aF0.429
aF0.391
aF0.417
aF0.411
aF0.405
aF0.412
asI43
(lp1249
F0.411
aF0.409
aF0.42
aF0.426
aF0.442
aF0.429
aF0.391
aF0.417
aF0.411
aF0.405
aF0.412
asI44
(lp1250
F0.411
aF0.409
aF0.42
aF0.426
aF0.442
aF0.429
aF0.391
aF0.417
aF0.411
aF0.405
aF0.412
asI45
(lp1251
F0.411
aF0.409
aF0.42
aF0.426
aF0.442
aF0.429
aF0.391
aF0.417
aF0.411
aF0.405
aF0.412
asI46
(lp1252
F0.411
aF0.409
aF0.42
aF0.426
aF0.442
aF0.429
aF0.391
aF0.417
aF0.411
aF0.405
aF0.412
asI47
(lp1253
F0.411
aF0.409
aF0.42
aF0.426
aF0.442
aF0.429
aF0.391
aF0.417
aF0.411
aF0.405
aF0.412
asI48
(lp1254
F0.411
aF0.409
aF0.42
aF0.426
aF0.442
aF0.429
aF0.391
aF0.417
aF0.411
aF0.405
aF0.412
asI49
(lp1255
F0.411
aF0.409
aF0.42
aF0.426
aF0.442
aF0.429
aF0.391
aF0.417
aF0.411
aF0.405
aF0.412
asI50
(lp1256
F0.411
aF0.409
aF0.42
aF0.426
aF0.442
aF0.429
aF0.391
aF0.417
aF0.411
aF0.405
aF0.412
asI51
(lp1257
F0.411
aF0.409
aF0.42
aF0.426
aF0.442
aF0.429
aF0.391
aF0.417
aF0.411
aF0.405
aF0.412
asI52
(lp1258
F0.411
aF0.409
aF0.42
aF0.426
aF0.442
aF0.429
aF0.391
aF0.417
aF0.411
aF0.405
aF0.412
asI53
(lp1259
F0.411
aF0.409
aF0.42
aF0.426
aF0.442
aF0.429
aF0.391
aF0.417
aF0.411
aF0.405
aF0.412
asI54
(lp1260
F0.411
aF0.409
aF0.42
aF0.426
aF0.442
aF0.429
aF0.391
aF0.417
aF0.411
aF0.405
aF0.412
asI55
(lp1261
F0.411
aF0.409
aF0.42
aF0.426
aF0.399
aF0.429
aF0.391
aF0.417
aF0.411
aF0.405
aF0.412
asI56
(lp1262
F0.411
aF0.409
aF0.42
aF0.426
aF0.399
aF0.429
aF0.391
aF0.417
aF0.411
aF0.405
aF0.412
asI57
(lp1263
F0.411
aF0.409
aF0.42
aF0.426
aF0.399
aF0.429
aF0.391
aF0.417
aF0.411
aF0.405
aF0.384
asI58
(lp1264
F0.411
aF0.409
aF0.42
aF0.426
aF0.399
aF0.429
aF0.391
aF0.417
aF0.411
aF0.405
aF0.384
asI59
(lp1265
F0.411
aF0.409
aF0.42
aF0.426
aF0.399
aF0.429
aF0.391
aF0.417
aF0.411
aF0.405
aF0.384
asI60
(lp1266
F0.411
aF0.409
aF0.42
aF0.426
aF0.399
aF0.429
aF0.391
aF0.388
aF0.411
aF0.405
aF0.384
asI61
(lp1267
F0.411
aF0.409
aF0.42
aF0.426
aF0.399
aF0.429
aF0.391
aF0.388
aF0.411
aF0.405
aF0.384
asI62
(lp1268
F0.411
aF0.409
aF0.42
aF0.426
aF0.399
aF0.429
aF0.391
aF0.388
aF0.411
aF0.405
aF0.384
asI63
(lp1269
F0.411
aF0.409
aF0.42
aF0.426
aF0.399
aF0.429
aF0.391
aF0.388
aF0.411
aF0.405
aF0.384
asI64
(lp1270
F0.411
aF0.409
aF0.42
aF0.426
aF0.399
aF0.429
aF0.391
aF0.388
aF0.411
aF0.405
aF0.384
asI65
(lp1271
F0.411
aF0.409
aF0.42
aF0.426
aF0.399
aF0.429
aF0.391
aF0.388
aF0.411
aF0.405
aF0.384
asI66
(lp1272
F0.411
aF0.409
aF0.42
aF0.426
aF0.399
aF0.429
aF0.334
aF0.388
aF0.411
aF0.405
aF0.384
asI67
(lp1273
F0.411
aF0.409
aF0.42
aF0.426
aF0.399
aF0.429
aF0.334
aF0.388
aF0.411
aF0.405
aF0.384
asI68
(lp1274
F0.411
aF0.409
aF0.42
aF0.426
aF0.399
aF0.429
aF0.334
aF0.388
aF0.411
aF0.405
aF0.351
asI69
(lp1275
F0.411
aF0.409
aF0.42
aF0.426
aF0.399
aF0.429
aF0.334
aF0.388
aF0.411
aF0.405
aF0.351
asI70
(lp1276
F0.411
aF0.409
aF0.42
aF0.426
aF0.399
aF0.429
aF0.334
aF0.388
aF0.411
aF0.405
aF0.351
asI71
(lp1277
F0.411
aF0.409
aF0.42
aF0.426
aF0.399
aF0.429
aF0.334
aF0.388
aF0.411
aF0.405
aF0.351
asI72
(lp1278
F0.411
aF0.409
aF0.42
aF0.426
aF0.399
aF0.429
aF0.334
aF0.388
aF0.411
aF0.405
aF0.351
asI73
(lp1279
F0.411
aF0.409
aF0.42
aF0.426
aF0.399
aF0.429
aF0.334
aF0.388
aF0.411
aF0.405
aF0.351
asI74
(lp1280
F0.411
aF0.409
aF0.42
aF0.426
aF0.399
aF0.429
aF0.334
aF0.388
aF0.411
aF0.405
aF0.351
asI75
(lp1281
F0.411
aF0.409
aF0.42
aF0.426
aF0.399
aF0.429
aF0.334
aF0.388
aF0.411
aF0.405
aF0.351
asI76
(lp1282
F0.411
aF0.409
aF0.42
aF0.426
aF0.399
aF0.429
aF0.334
aF0.388
aF0.411
aF0.405
aF0.351
asI77
(lp1283
F0.411
aF0.377
aF0.42
aF0.426
aF0.399
aF0.429
aF0.334
aF0.388
aF0.411
aF0.405
aF0.351
asI78
(lp1284
F0.411
aF0.377
aF0.42
aF0.426
aF0.399
aF0.429
aF0.334
aF0.388
aF0.411
aF0.405
aF0.351
asI79
(lp1285
F0.411
aF0.377
aF0.42
aF0.426
aF0.399
aF0.429
aF0.334
aF0.388
aF0.411
aF0.405
aF0.351
asI80
(lp1286
F0.411
aF0.377
aF0.42
aF0.426
aF0.399
aF0.429
aF0.334
aF0.388
aF0.411
aF0.405
aF0.351
asI81
(lp1287
F0.411
aF0.377
aF0.42
aF0.426
aF0.399
aF0.429
aF0.334
aF0.388
aF0.411
aF0.405
aF0.351
asI82
(lp1288
F0.411
aF0.377
aF0.42
aF0.426
aF0.399
aF0.429
aF0.334
aF0.388
aF0.411
aF0.405
aF0.351
asI83
(lp1289
F0.411
aF0.377
aF0.42
aF0.426
aF0.399
aF0.429
aF0.334
aF0.388
aF0.411
aF0.405
aF0.351
asI84
(lp1290
F0.411
aF0.377
aF0.42
aF0.426
aF0.399
aF0.429
aF0.334
aF0.388
aF0.411
aF0.405
aF0.351
asI85
(lp1291
F0.411
aF0.377
aF0.42
aF0.426
aF0.399
aF0.429
aF0.334
aF0.388
aF0.411
aF0.405
aF0.351
asI86
(lp1292
F0.411
aF0.377
aF0.42
aF0.426
aF0.399
aF0.429
aF0.334
aF0.388
aF0.411
aF0.405
aF0.351
asI87
(lp1293
F0.411
aF0.377
aF0.42
aF0.426
aF0.399
aF0.429
aF0.334
aF0.388
aF0.411
aF0.405
aF0.351
asI88
(lp1294
F0.411
aF0.377
aF0.42
aF0.426
aF0.399
aF0.429
aF0.334
aF0.388
aF0.411
aF0.405
aF0.351
asI89
(lp1295
F0.411
aF0.377
aF0.42
aF0.426
aF0.399
aF0.429
aF0.334
aF0.388
aF0.411
aF0.405
aF0.351
asI90
(lp1296
F0.411
aF0.377
aF0.42
aF0.426
aF0.399
aF0.429
aF0.334
aF0.388
aF0.411
aF0.405
aF0.351
asI91
(lp1297
F0.411
aF0.377
aF0.42
aF0.426
aF0.399
aF0.429
aF0.334
aF0.388
aF0.411
aF0.405
aF0.351
asI92
(lp1298
F0.411
aF0.377
aF0.42
aF0.426
aF0.399
aF0.429
aF0.334
aF0.388
aF0.411
aF0.405
aF0.351
asI93
(lp1299
F0.411
aF0.377
aF0.42
aF0.426
aF0.399
aF0.429
aF0.334
aF0.388
aF0.411
aF0.405
aF0.351
asI94
(lp1300
F0.411
aF0.377
aF0.42
aF0.426
aF0.399
aF0.429
aF0.334
aF0.388
aF0.411
aF0.405
aF0.351
asI95
(lp1301
F0.411
aF0.377
aF0.42
aF0.426
aF0.399
aF0.429
aF0.334
aF0.388
aF0.411
aF0.405
aF0.351
asI96
(lp1302
F0.411
aF0.377
aF0.42
aF0.426
aF0.399
aF0.429
aF0.334
aF0.388
aF0.411
aF0.405
aF0.351
asI97
(lp1303
F0.411
aF0.377
aF0.42
aF0.426
aF0.399
aF0.429
aF0.334
aF0.388
aF0.411
aF0.405
aF0.351
asI98
(lp1304
F0.411
aF0.377
aF0.42
aF0.426
aF0.399
aF0.429
aF0.334
aF0.388
aF0.411
aF0.405
aF0.351
asI99
(lp1305
F0.411
aF0.377
aF0.42
aF0.426
aF0.399
aF0.429
aF0.334
aF0.388
aF0.411
aF0.405
aF0.351
asssS'temp'
p1306
(dp1307
F0.025
(dp1308
I0
F0.459
sI1
F0.459
sI2
F0.459
sI3
F0.459
sI4
F0.459
sI5
F0.459
sI6
F0.459
sI7
F0.459
sI8
F0.459
sI9
F0.459
sI10
F0.459
sI11
F0.459
sI12
F0.459
sI13
F0.459
sI14
F0.459
sI15
F0.412
sI16
F0.412
sI17
F0.412
sI18
F0.412
sI19
F0.412
sI20
F0.412
sI21
F0.412
sI22
F0.412
sI23
F0.412
sI24
F0.412
sI25
F0.412
sI26
F0.412
sI27
F0.412
sI28
F0.412
sI29
F0.412
sI30
F0.412
sI31
F0.412
sI32
F0.412
sI33
F0.412
sI34
F0.412
sI35
F0.412
sI36
F0.412
sI37
F0.412
sI38
F0.412
sI39
F0.412
sI40
F0.412
sI41
F0.412
sI42
F0.412
sI43
F0.412
sI44
F0.412
sI45
F0.412
sI46
F0.412
sI47
F0.412
sI48
F0.412
sI49
F0.412
sI50
F0.412
sI51
F0.412
sI52
F0.412
sI53
F0.412
sI54
F0.412
sI55
F0.412
sI56
F0.412
sI57
F0.384
sI58
F0.384
sI59
F0.384
sI60
F0.384
sI61
F0.384
sI62
F0.384
sI63
F0.384
sI64
F0.384
sI65
F0.384
sI66
F0.384
sI67
F0.384
sI68
F0.351
sI69
F0.351
sI70
F0.351
sI71
F0.351
sI72
F0.351
sI73
F0.351
sI74
F0.351
sI75
F0.351
sI76
F0.351
sI77
F0.351
sI78
F0.351
sI79
F0.351
sI80
F0.351
sI81
F0.351
sI82
F0.351
sI83
F0.351
sI84
F0.351
sI85
F0.351
sI86
F0.351
sI87
F0.351
sI88
F0.351
sI89
F0.351
sI90
F0.351
sI91
F0.351
sI92
F0.351
sI93
F0.351
sI94
F0.351
sI95
F0.351
sI96
F0.351
sI97
F0.351
sI98
F0.351
sI99
F0.351
sssF0.025
(lp1309
F42.688
aF39.771
aF41.643
aF42.348
aF43.352
aF42.471
aF37.922
aF40.572
aF41.912
aF41.102
aF39.24
asS'time'
p1310
F31450.545904159546
s.